
snake_2_menu.exe:     file format pei-i386


Disassembly of section .text:

00401000 <___mingw_invalidParameterHandler>:
  401000:	f3 c3                	repz ret 
  401002:	8d b4 26 00 00 00 00 	lea    0x0(%esi,%eiz,1),%esi
  401009:	8d bc 27 00 00 00 00 	lea    0x0(%edi,%eiz,1),%edi

00401010 <_pre_c_init>:
  401010:	83 ec 1c             	sub    $0x1c,%esp
  401013:	31 c0                	xor    %eax,%eax
  401015:	66 81 3d 00 00 40 00 	cmpw   $0x5a4d,0x400000
  40101c:	4d 5a 
  40101e:	c7 05 6c 2a 41 00 01 	movl   $0x1,0x412a6c
  401025:	00 00 00 
  401028:	c7 05 68 2a 41 00 01 	movl   $0x1,0x412a68
  40102f:	00 00 00 
  401032:	c7 05 64 2a 41 00 01 	movl   $0x1,0x412a64
  401039:	00 00 00 
  40103c:	c7 05 04 27 41 00 01 	movl   $0x1,0x412704
  401043:	00 00 00 
  401046:	74 68                	je     4010b0 <_pre_c_init+0xa0>
  401048:	a3 08 20 41 00       	mov    %eax,0x412008
  40104d:	a1 78 2a 41 00       	mov    0x412a78,%eax
  401052:	85 c0                	test   %eax,%eax
  401054:	74 4a                	je     4010a0 <_pre_c_init+0x90>
  401056:	c7 04 24 02 00 00 00 	movl   $0x2,(%esp)
  40105d:	e8 62 bd 00 00       	call   40cdc4 <___set_app_type>
  401062:	c7 04 24 ff ff ff ff 	movl   $0xffffffff,(%esp)
  401069:	e8 e2 b0 00 00       	call   40c150 <__encode_pointer>
  40106e:	8b 15 88 2a 41 00    	mov    0x412a88,%edx
  401074:	a3 40 46 41 00       	mov    %eax,0x414640
  401079:	a3 44 46 41 00       	mov    %eax,0x414644
  40107e:	a1 a8 53 41 00       	mov    0x4153a8,%eax
  401083:	89 10                	mov    %edx,(%eax)
  401085:	e8 b6 ad 00 00       	call   40be40 <__setargv>
  40108a:	83 3d a4 e3 40 00 01 	cmpl   $0x1,0x40e3a4
  401091:	74 6d                	je     401100 <_pre_c_init+0xf0>
  401093:	31 c0                	xor    %eax,%eax
  401095:	83 c4 1c             	add    $0x1c,%esp
  401098:	c3                   	ret    
  401099:	8d b4 26 00 00 00 00 	lea    0x0(%esi,%eiz,1),%esi
  4010a0:	c7 04 24 01 00 00 00 	movl   $0x1,(%esp)
  4010a7:	e8 18 bd 00 00       	call   40cdc4 <___set_app_type>
  4010ac:	eb b4                	jmp    401062 <_pre_c_init+0x52>
  4010ae:	66 90                	xchg   %ax,%ax
  4010b0:	8b 15 3c 00 40 00    	mov    0x40003c,%edx
  4010b6:	81 ba 00 00 40 00 50 	cmpl   $0x4550,0x400000(%edx)
  4010bd:	45 00 00 
  4010c0:	8d 8a 00 00 40 00    	lea    0x400000(%edx),%ecx
  4010c6:	75 80                	jne    401048 <_pre_c_init+0x38>
  4010c8:	0f b7 51 18          	movzwl 0x18(%ecx),%edx
  4010cc:	66 81 fa 0b 01       	cmp    $0x10b,%dx
  4010d1:	74 3f                	je     401112 <_pre_c_init+0x102>
  4010d3:	66 81 fa 0b 02       	cmp    $0x20b,%dx
  4010d8:	0f 85 6a ff ff ff    	jne    401048 <_pre_c_init+0x38>
  4010de:	83 b9 84 00 00 00 0e 	cmpl   $0xe,0x84(%ecx)
  4010e5:	0f 86 5d ff ff ff    	jbe    401048 <_pre_c_init+0x38>
  4010eb:	8b 91 f8 00 00 00    	mov    0xf8(%ecx),%edx
  4010f1:	31 c0                	xor    %eax,%eax
  4010f3:	85 d2                	test   %edx,%edx
  4010f5:	0f 95 c0             	setne  %al
  4010f8:	e9 4b ff ff ff       	jmp    401048 <_pre_c_init+0x38>
  4010fd:	8d 76 00             	lea    0x0(%esi),%esi
  401100:	c7 04 24 d0 c0 40 00 	movl   $0x40c0d0,(%esp)
  401107:	e8 b4 af 00 00       	call   40c0c0 <___mingw_setusermatherr>
  40110c:	31 c0                	xor    %eax,%eax
  40110e:	83 c4 1c             	add    $0x1c,%esp
  401111:	c3                   	ret    
  401112:	83 79 74 0e          	cmpl   $0xe,0x74(%ecx)
  401116:	0f 86 2c ff ff ff    	jbe    401048 <_pre_c_init+0x38>
  40111c:	8b 89 e8 00 00 00    	mov    0xe8(%ecx),%ecx
  401122:	31 c0                	xor    %eax,%eax
  401124:	85 c9                	test   %ecx,%ecx
  401126:	0f 95 c0             	setne  %al
  401129:	e9 1a ff ff ff       	jmp    401048 <_pre_c_init+0x38>
  40112e:	66 90                	xchg   %ax,%ax

00401130 <_pre_cpp_init>:
  401130:	83 ec 2c             	sub    $0x2c,%esp
  401133:	a1 60 2a 41 00       	mov    0x412a60,%eax
  401138:	c7 44 24 10 00 20 41 	movl   $0x412000,0x10(%esp)
  40113f:	00 
  401140:	c7 44 24 08 14 20 41 	movl   $0x412014,0x8(%esp)
  401147:	00 
  401148:	c7 44 24 04 18 20 41 	movl   $0x412018,0x4(%esp)
  40114f:	00 
  401150:	a3 00 20 41 00       	mov    %eax,0x412000
  401155:	a1 98 e3 40 00       	mov    0x40e398,%eax
  40115a:	c7 04 24 1c 20 41 00 	movl   $0x41201c,(%esp)
  401161:	89 44 24 0c          	mov    %eax,0xc(%esp)
  401165:	e8 62 bc 00 00       	call   40cdcc <___getmainargs>
  40116a:	a3 10 20 41 00       	mov    %eax,0x412010
  40116f:	83 c4 2c             	add    $0x2c,%esp
  401172:	c3                   	ret    
  401173:	8d b6 00 00 00 00    	lea    0x0(%esi),%esi
  401179:	8d bc 27 00 00 00 00 	lea    0x0(%edi,%eiz,1),%edi

00401180 <___tmainCRTStartup>:
  401180:	55                   	push   %ebp
  401181:	31 c0                	xor    %eax,%eax
  401183:	89 e5                	mov    %esp,%ebp
  401185:	b9 11 00 00 00       	mov    $0x11,%ecx
  40118a:	57                   	push   %edi
  40118b:	56                   	push   %esi
  40118c:	8d 55 a4             	lea    -0x5c(%ebp),%edx
  40118f:	53                   	push   %ebx
  401190:	89 d7                	mov    %edx,%edi
  401192:	83 ec 7c             	sub    $0x7c,%esp
  401195:	f3 ab                	rep stos %eax,%es:(%edi)
  401197:	b0 30                	mov    $0x30,%al
  401199:	e8 22 bb 00 00       	call   40ccc0 <___chkstk_ms>
  40119e:	29 c4                	sub    %eax,%esp
  4011a0:	8d 44 24 1b          	lea    0x1b(%esp),%eax
  4011a4:	83 e0 f0             	and    $0xfffffff0,%eax
  4011a7:	c7 00 cc cc cc cc    	movl   $0xcccccccc,(%eax)
  4011ad:	c7 40 04 cc cc cc cc 	movl   $0xcccccccc,0x4(%eax)
  4011b4:	c7 40 08 cc cc cc cc 	movl   $0xcccccccc,0x8(%eax)
  4011bb:	c7 40 0c cc cc cc cc 	movl   $0xcccccccc,0xc(%eax)
  4011c2:	c7 40 10 cc cc cc cc 	movl   $0xcccccccc,0x10(%eax)
  4011c9:	c7 40 14 cc cc cc cc 	movl   $0xcccccccc,0x14(%eax)
  4011d0:	c7 40 18 cc cc cc cc 	movl   $0xcccccccc,0x18(%eax)
  4011d7:	c7 40 1c cc cc cc cc 	movl   $0xcccccccc,0x1c(%eax)
  4011de:	83 e4 f0             	and    $0xfffffff0,%esp
  4011e1:	8b 35 78 2a 41 00    	mov    0x412a78,%esi
  4011e7:	85 f6                	test   %esi,%esi
  4011e9:	0f 85 81 02 00 00    	jne    401470 <___tmainCRTStartup+0x2f0>
  4011ef:	64 a1 18 00 00 00    	mov    %fs:0x18,%eax
  4011f5:	31 f6                	xor    %esi,%esi
  4011f7:	8b 58 04             	mov    0x4(%eax),%ebx
  4011fa:	8b 3d 4c 53 41 00    	mov    0x41534c,%edi
  401200:	eb 14                	jmp    401216 <___tmainCRTStartup+0x96>
  401202:	39 d8                	cmp    %ebx,%eax
  401204:	0f 84 06 02 00 00    	je     401410 <___tmainCRTStartup+0x290>
  40120a:	c7 04 24 e8 03 00 00 	movl   $0x3e8,(%esp)
  401211:	ff d7                	call   *%edi
  401213:	83 ec 04             	sub    $0x4,%esp
  401216:	89 f0                	mov    %esi,%eax
  401218:	f0 0f b1 1d 48 46 41 	lock cmpxchg %ebx,0x414648
  40121f:	00 
  401220:	85 c0                	test   %eax,%eax
  401222:	75 de                	jne    401202 <___tmainCRTStartup+0x82>
  401224:	a1 4c 46 41 00       	mov    0x41464c,%eax
  401229:	31 db                	xor    %ebx,%ebx
  40122b:	83 f8 01             	cmp    $0x1,%eax
  40122e:	0f 84 ef 01 00 00    	je     401423 <___tmainCRTStartup+0x2a3>
  401234:	a1 4c 46 41 00       	mov    0x41464c,%eax
  401239:	85 c0                	test   %eax,%eax
  40123b:	0f 84 40 02 00 00    	je     401481 <___tmainCRTStartup+0x301>
  401241:	c7 05 04 20 41 00 01 	movl   $0x1,0x412004
  401248:	00 00 00 
  40124b:	a1 4c 46 41 00       	mov    0x41464c,%eax
  401250:	83 f8 01             	cmp    $0x1,%eax
  401253:	0f 84 e4 01 00 00    	je     40143d <___tmainCRTStartup+0x2bd>
  401259:	85 db                	test   %ebx,%ebx
  40125b:	0f 84 02 02 00 00    	je     401463 <___tmainCRTStartup+0x2e3>
  401261:	a1 90 ff 40 00       	mov    0x40ff90,%eax
  401266:	85 c0                	test   %eax,%eax
  401268:	74 1c                	je     401286 <___tmainCRTStartup+0x106>
  40126a:	c7 44 24 08 00 00 00 	movl   $0x0,0x8(%esp)
  401271:	00 
  401272:	c7 44 24 04 02 00 00 	movl   $0x2,0x4(%esp)
  401279:	00 
  40127a:	c7 04 24 00 00 00 00 	movl   $0x0,(%esp)
  401281:	ff d0                	call   *%eax
  401283:	83 ec 0c             	sub    $0xc,%esp
  401286:	e8 75 b0 00 00       	call   40c300 <__pei386_runtime_relocator>
  40128b:	c7 04 24 a0 c5 40 00 	movl   $0x40c5a0,(%esp)
  401292:	ff 15 44 53 41 00    	call   *0x415344
  401298:	83 ec 04             	sub    $0x4,%esp
  40129b:	a3 8c 2a 41 00       	mov    %eax,0x412a8c
  4012a0:	c7 04 24 00 10 40 00 	movl   $0x401000,(%esp)
  4012a7:	e8 44 bb 00 00       	call   40cdf0 <__set_invalid_parameter_handler>
  4012ac:	e8 7f ae 00 00       	call   40c130 <__fpreset>
  4012b1:	a1 94 53 41 00       	mov    0x415394,%eax
  4012b6:	c7 05 dc 2a 41 00 00 	movl   $0x400000,0x412adc
  4012bd:	00 40 00 
  4012c0:	8b 00                	mov    (%eax),%eax
  4012c2:	85 c0                	test   %eax,%eax
  4012c4:	74 43                	je     401309 <___tmainCRTStartup+0x189>
  4012c6:	31 c9                	xor    %ecx,%ecx
  4012c8:	eb 16                	jmp    4012e0 <___tmainCRTStartup+0x160>
  4012ca:	8d b6 00 00 00 00    	lea    0x0(%esi),%esi
  4012d0:	84 d2                	test   %dl,%dl
  4012d2:	74 30                	je     401304 <___tmainCRTStartup+0x184>
  4012d4:	85 c9                	test   %ecx,%ecx
  4012d6:	74 21                	je     4012f9 <___tmainCRTStartup+0x179>
  4012d8:	b9 01 00 00 00       	mov    $0x1,%ecx
  4012dd:	83 c0 01             	add    $0x1,%eax
  4012e0:	0f b6 10             	movzbl (%eax),%edx
  4012e3:	80 fa 20             	cmp    $0x20,%dl
  4012e6:	7e e8                	jle    4012d0 <___tmainCRTStartup+0x150>
  4012e8:	89 cb                	mov    %ecx,%ebx
  4012ea:	83 f3 01             	xor    $0x1,%ebx
  4012ed:	80 fa 22             	cmp    $0x22,%dl
  4012f0:	0f 44 cb             	cmove  %ebx,%ecx
  4012f3:	eb e8                	jmp    4012dd <___tmainCRTStartup+0x15d>
  4012f5:	84 d2                	test   %dl,%dl
  4012f7:	74 0b                	je     401304 <___tmainCRTStartup+0x184>
  4012f9:	83 c0 01             	add    $0x1,%eax
  4012fc:	0f b6 10             	movzbl (%eax),%edx
  4012ff:	80 fa 20             	cmp    $0x20,%dl
  401302:	7e f1                	jle    4012f5 <___tmainCRTStartup+0x175>
  401304:	a3 d8 2a 41 00       	mov    %eax,0x412ad8
  401309:	8b 1d 78 2a 41 00    	mov    0x412a78,%ebx
  40130f:	85 db                	test   %ebx,%ebx
  401311:	74 15                	je     401328 <___tmainCRTStartup+0x1a8>
  401313:	0f b7 55 d4          	movzwl -0x2c(%ebp),%edx
  401317:	b8 0a 00 00 00       	mov    $0xa,%eax
  40131c:	f6 45 d0 01          	testb  $0x1,-0x30(%ebp)
  401320:	0f 45 c2             	cmovne %edx,%eax
  401323:	a3 00 e0 40 00       	mov    %eax,0x40e000
  401328:	a1 1c 20 41 00       	mov    0x41201c,%eax
  40132d:	89 45 90             	mov    %eax,-0x70(%ebp)
  401330:	89 c6                	mov    %eax,%esi
  401332:	8d 04 85 04 00 00 00 	lea    0x4(,%eax,4),%eax
  401339:	89 45 8c             	mov    %eax,-0x74(%ebp)
  40133c:	89 04 24             	mov    %eax,(%esp)
  40133f:	e8 08 ba 00 00       	call   40cd4c <_malloc>
  401344:	85 f6                	test   %esi,%esi
  401346:	8b 3d 18 20 41 00    	mov    0x412018,%edi
  40134c:	89 45 94             	mov    %eax,-0x6c(%ebp)
  40134f:	0f 8e 4f 01 00 00    	jle    4014a4 <___tmainCRTStartup+0x324>
  401355:	31 db                	xor    %ebx,%ebx
  401357:	89 fe                	mov    %edi,%esi
  401359:	8d b4 26 00 00 00 00 	lea    0x0(%esi,%eiz,1),%esi
  401360:	8b 04 9e             	mov    (%esi,%ebx,4),%eax
  401363:	89 04 24             	mov    %eax,(%esp)
  401366:	e8 a1 b9 00 00       	call   40cd0c <_strlen>
  40136b:	8d 78 01             	lea    0x1(%eax),%edi
  40136e:	89 3c 24             	mov    %edi,(%esp)
  401371:	e8 d6 b9 00 00       	call   40cd4c <_malloc>
  401376:	8b 4d 94             	mov    -0x6c(%ebp),%ecx
  401379:	89 04 99             	mov    %eax,(%ecx,%ebx,4)
  40137c:	8b 0c 9e             	mov    (%esi,%ebx,4),%ecx
  40137f:	83 c3 01             	add    $0x1,%ebx
  401382:	89 7c 24 08          	mov    %edi,0x8(%esp)
  401386:	89 04 24             	mov    %eax,(%esp)
  401389:	89 4c 24 04          	mov    %ecx,0x4(%esp)
  40138d:	e8 b2 b9 00 00       	call   40cd44 <_memcpy>
  401392:	3b 5d 90             	cmp    -0x70(%ebp),%ebx
  401395:	75 c9                	jne    401360 <___tmainCRTStartup+0x1e0>
  401397:	8b 45 8c             	mov    -0x74(%ebp),%eax
  40139a:	83 e8 04             	sub    $0x4,%eax
  40139d:	8b 75 94             	mov    -0x6c(%ebp),%esi
  4013a0:	c7 04 06 00 00 00 00 	movl   $0x0,(%esi,%eax,1)
  4013a7:	89 35 18 20 41 00    	mov    %esi,0x412018
  4013ad:	e8 5e aa 00 00       	call   40be10 <___main>
  4013b2:	a1 84 53 41 00       	mov    0x415384,%eax
  4013b7:	8b 15 14 20 41 00    	mov    0x412014,%edx
  4013bd:	89 10                	mov    %edx,(%eax)
  4013bf:	a1 14 20 41 00       	mov    0x412014,%eax
  4013c4:	89 44 24 08          	mov    %eax,0x8(%esp)
  4013c8:	a1 18 20 41 00       	mov    0x412018,%eax
  4013cd:	89 44 24 04          	mov    %eax,0x4(%esp)
  4013d1:	a1 1c 20 41 00       	mov    0x41201c,%eax
  4013d6:	89 04 24             	mov    %eax,(%esp)
  4013d9:	e8 12 13 00 00       	call   4026f0 <_main>
  4013de:	8b 0d 08 20 41 00    	mov    0x412008,%ecx
  4013e4:	85 c9                	test   %ecx,%ecx
  4013e6:	a3 0c 20 41 00       	mov    %eax,0x41200c
  4013eb:	0f 84 ba 00 00 00    	je     4014ab <___tmainCRTStartup+0x32b>
  4013f1:	8b 15 04 20 41 00    	mov    0x412004,%edx
  4013f7:	85 d2                	test   %edx,%edx
  4013f9:	75 0a                	jne    401405 <___tmainCRTStartup+0x285>
  4013fb:	e8 ac b9 00 00       	call   40cdac <__cexit>
  401400:	a1 0c 20 41 00       	mov    0x41200c,%eax
  401405:	8d 65 f4             	lea    -0xc(%ebp),%esp
  401408:	5b                   	pop    %ebx
  401409:	5e                   	pop    %esi
  40140a:	5f                   	pop    %edi
  40140b:	5d                   	pop    %ebp
  40140c:	c3                   	ret    
  40140d:	8d 76 00             	lea    0x0(%esi),%esi
  401410:	a1 4c 46 41 00       	mov    0x41464c,%eax
  401415:	bb 01 00 00 00       	mov    $0x1,%ebx
  40141a:	83 f8 01             	cmp    $0x1,%eax
  40141d:	0f 85 11 fe ff ff    	jne    401234 <___tmainCRTStartup+0xb4>
  401423:	c7 04 24 1f 00 00 00 	movl   $0x1f,(%esp)
  40142a:	e8 85 b9 00 00       	call   40cdb4 <__amsg_exit>
  40142f:	a1 4c 46 41 00       	mov    0x41464c,%eax
  401434:	83 f8 01             	cmp    $0x1,%eax
  401437:	0f 85 1c fe ff ff    	jne    401259 <___tmainCRTStartup+0xd9>
  40143d:	c7 44 24 04 08 60 41 	movl   $0x416008,0x4(%esp)
  401444:	00 
  401445:	c7 04 24 00 60 41 00 	movl   $0x416000,(%esp)
  40144c:	e8 53 b9 00 00       	call   40cda4 <__initterm>
  401451:	85 db                	test   %ebx,%ebx
  401453:	c7 05 4c 46 41 00 02 	movl   $0x2,0x41464c
  40145a:	00 00 00 
  40145d:	0f 85 fe fd ff ff    	jne    401261 <___tmainCRTStartup+0xe1>
  401463:	87 1d 48 46 41 00    	xchg   %ebx,0x414648
  401469:	e9 f3 fd ff ff       	jmp    401261 <___tmainCRTStartup+0xe1>
  40146e:	66 90                	xchg   %ax,%ax
  401470:	89 14 24             	mov    %edx,(%esp)
  401473:	ff 15 d4 52 41 00    	call   *0x4152d4
  401479:	83 ec 04             	sub    $0x4,%esp
  40147c:	e9 6e fd ff ff       	jmp    4011ef <___tmainCRTStartup+0x6f>
  401481:	c7 05 4c 46 41 00 01 	movl   $0x1,0x41464c
  401488:	00 00 00 
  40148b:	c7 44 24 04 18 60 41 	movl   $0x416018,0x4(%esp)
  401492:	00 
  401493:	c7 04 24 0c 60 41 00 	movl   $0x41600c,(%esp)
  40149a:	e8 05 b9 00 00       	call   40cda4 <__initterm>
  40149f:	e9 a7 fd ff ff       	jmp    40124b <___tmainCRTStartup+0xcb>
  4014a4:	31 c0                	xor    %eax,%eax
  4014a6:	e9 f2 fe ff ff       	jmp    40139d <___tmainCRTStartup+0x21d>
  4014ab:	89 04 24             	mov    %eax,(%esp)
  4014ae:	66 90                	xchg   %ax,%ax
  4014b0:	e8 bf b8 00 00       	call   40cd74 <_exit>
  4014b5:	8d 74 26 00          	lea    0x0(%esi,%eiz,1),%esi
  4014b9:	8d bc 27 00 00 00 00 	lea    0x0(%edi,%eiz,1),%edi

004014c0 <_WinMainCRTStartup>:
  4014c0:	83 ec 0c             	sub    $0xc,%esp
  4014c3:	c7 05 78 2a 41 00 01 	movl   $0x1,0x412a78
  4014ca:	00 00 00 
  4014cd:	e8 7e a9 00 00       	call   40be50 <___security_init_cookie>
  4014d2:	83 c4 0c             	add    $0xc,%esp
  4014d5:	e9 a6 fc ff ff       	jmp    401180 <___tmainCRTStartup>
  4014da:	8d b6 00 00 00 00    	lea    0x0(%esi),%esi

004014e0 <_mainCRTStartup>:
  4014e0:	83 ec 0c             	sub    $0xc,%esp
  4014e3:	c7 05 78 2a 41 00 00 	movl   $0x0,0x412a78
  4014ea:	00 00 00 
  4014ed:	e8 5e a9 00 00       	call   40be50 <___security_init_cookie>
  4014f2:	83 c4 0c             	add    $0xc,%esp
  4014f5:	e9 86 fc ff ff       	jmp    401180 <___tmainCRTStartup>
  4014fa:	90                   	nop
  4014fb:	90                   	nop
  4014fc:	90                   	nop
  4014fd:	90                   	nop
  4014fe:	90                   	nop
  4014ff:	90                   	nop

00401500 <___gcc_register_frame>:
  401500:	a1 28 e4 40 00       	mov    0x40e428,%eax
  401505:	85 c0                	test   %eax,%eax
  401507:	74 43                	je     40154c <___gcc_register_frame+0x4c>
  401509:	55                   	push   %ebp
  40150a:	89 e5                	mov    %esp,%ebp
  40150c:	83 ec 18             	sub    $0x18,%esp
  40150f:	c7 04 24 00 f0 40 00 	movl   $0x40f000,(%esp)
  401516:	ff 15 c8 52 41 00    	call   *0x4152c8
  40151c:	83 ec 04             	sub    $0x4,%esp
  40151f:	85 c0                	test   %eax,%eax
  401521:	ba 00 00 00 00       	mov    $0x0,%edx
  401526:	74 16                	je     40153e <___gcc_register_frame+0x3e>
  401528:	c7 44 24 04 0e f0 40 	movl   $0x40f00e,0x4(%esp)
  40152f:	00 
  401530:	89 04 24             	mov    %eax,(%esp)
  401533:	ff 15 d0 52 41 00    	call   *0x4152d0
  401539:	83 ec 08             	sub    $0x8,%esp
  40153c:	89 c2                	mov    %eax,%edx
  40153e:	85 d2                	test   %edx,%edx
  401540:	74 09                	je     40154b <___gcc_register_frame+0x4b>
  401542:	c7 04 24 28 e4 40 00 	movl   $0x40e428,(%esp)
  401549:	ff d2                	call   *%edx
  40154b:	c9                   	leave  
  40154c:	f3 c3                	repz ret 
  40154e:	66 90                	xchg   %ax,%ax

00401550 <___gcc_deregister_frame>:
  401550:	55                   	push   %ebp
  401551:	89 e5                	mov    %esp,%ebp
  401553:	5d                   	pop    %ebp
  401554:	c3                   	ret    
  401555:	90                   	nop
  401556:	90                   	nop
  401557:	90                   	nop
  401558:	90                   	nop
  401559:	90                   	nop
  40155a:	90                   	nop
  40155b:	90                   	nop
  40155c:	90                   	nop
  40155d:	90                   	nop
  40155e:	90                   	nop
  40155f:	90                   	nop

00401560 <_setColor>:
  401560:	55                   	push   %ebp
  401561:	89 e5                	mov    %esp,%ebp
  401563:	83 ec 18             	sub    $0x18,%esp
  401566:	e8 25 bc 00 00       	call   40d190 <_mcount>
  40156b:	c7 04 24 00 00 00 01 	movl   $0x1000000,(%esp)
  401572:	e8 89 14 00 00       	call   402a00 <_attroff>
  401577:	c7 04 24 00 00 00 02 	movl   $0x2000000,(%esp)
  40157e:	e8 7d 14 00 00       	call   402a00 <_attroff>
  401583:	c7 04 24 00 00 00 03 	movl   $0x3000000,(%esp)
  40158a:	e8 71 14 00 00       	call   402a00 <_attroff>
  40158f:	8b 45 08             	mov    0x8(%ebp),%eax
  401592:	83 f8 02             	cmp    $0x2,%eax
  401595:	74 18                	je     4015af <_setColor+0x4f>
  401597:	83 f8 03             	cmp    $0x3,%eax
  40159a:	74 21                	je     4015bd <_setColor+0x5d>
  40159c:	83 f8 01             	cmp    $0x1,%eax
  40159f:	75 29                	jne    4015ca <_setColor+0x6a>
  4015a1:	c7 04 24 00 00 00 01 	movl   $0x1000000,(%esp)
  4015a8:	e8 e3 14 00 00       	call   402a90 <_attron>
  4015ad:	eb 1b                	jmp    4015ca <_setColor+0x6a>
  4015af:	c7 04 24 00 00 00 02 	movl   $0x2000000,(%esp)
  4015b6:	e8 d5 14 00 00       	call   402a90 <_attron>
  4015bb:	eb 0d                	jmp    4015ca <_setColor+0x6a>
  4015bd:	c7 04 24 00 00 00 03 	movl   $0x3000000,(%esp)
  4015c4:	e8 c7 14 00 00       	call   402a90 <_attron>
  4015c9:	90                   	nop
  4015ca:	c9                   	leave  
  4015cb:	c3                   	ret    

004015cc <_initTail>:
  4015cc:	55                   	push   %ebp
  4015cd:	89 e5                	mov    %esp,%ebp
  4015cf:	83 ec 10             	sub    $0x10,%esp
  4015d2:	e8 b9 bb 00 00       	call   40d190 <_mcount>
  4015d7:	c7 45 f4 00 00 00 00 	movl   $0x0,-0xc(%ebp)
  4015de:	c7 45 f8 00 00 00 00 	movl   $0x0,-0x8(%ebp)
  4015e5:	c7 45 fc 00 00 00 00 	movl   $0x0,-0x4(%ebp)
  4015ec:	eb 1f                	jmp    40160d <_initTail+0x41>
  4015ee:	8b 45 fc             	mov    -0x4(%ebp),%eax
  4015f1:	8d 14 c5 00 00 00 00 	lea    0x0(,%eax,8),%edx
  4015f8:	8b 45 08             	mov    0x8(%ebp),%eax
  4015fb:	8d 0c 02             	lea    (%edx,%eax,1),%ecx
  4015fe:	8b 45 f4             	mov    -0xc(%ebp),%eax
  401601:	8b 55 f8             	mov    -0x8(%ebp),%edx
  401604:	89 01                	mov    %eax,(%ecx)
  401606:	89 51 04             	mov    %edx,0x4(%ecx)
  401609:	83 45 fc 01          	addl   $0x1,-0x4(%ebp)
  40160d:	8b 45 fc             	mov    -0x4(%ebp),%eax
  401610:	3b 45 0c             	cmp    0xc(%ebp),%eax
  401613:	72 d9                	jb     4015ee <_initTail+0x22>
  401615:	c9                   	leave  
  401616:	c3                   	ret    

00401617 <_initHead>:
  401617:	55                   	push   %ebp
  401618:	89 e5                	mov    %esp,%ebp
  40161a:	e8 71 bb 00 00       	call   40d190 <_mcount>
  40161f:	8b 45 08             	mov    0x8(%ebp),%eax
  401622:	8b 55 0c             	mov    0xc(%ebp),%edx
  401625:	89 10                	mov    %edx,(%eax)
  401627:	8b 45 08             	mov    0x8(%ebp),%eax
  40162a:	8b 55 10             	mov    0x10(%ebp),%edx
  40162d:	89 50 04             	mov    %edx,0x4(%eax)
  401630:	8b 45 08             	mov    0x8(%ebp),%eax
  401633:	c7 40 08 03 00 00 00 	movl   $0x3,0x8(%eax)
  40163a:	5d                   	pop    %ebp
  40163b:	c3                   	ret    

0040163c <_initSnake>:
  40163c:	55                   	push   %ebp
  40163d:	89 e5                	mov    %esp,%ebp
  40163f:	53                   	push   %ebx
  401640:	83 ec 24             	sub    $0x24,%esp
  401643:	e8 48 bb 00 00       	call   40d190 <_mcount>
  401648:	8b 45 18             	mov    0x18(%ebp),%eax
  40164b:	8d 14 85 00 00 00 00 	lea    0x0(,%eax,4),%edx
  401652:	8b 45 08             	mov    0x8(%ebp),%eax
  401655:	8d 1c 02             	lea    (%edx,%eax,1),%ebx
  401658:	c7 04 24 20 00 00 00 	movl   $0x20,(%esp)
  40165f:	e8 e8 b6 00 00       	call   40cd4c <_malloc>
  401664:	89 03                	mov    %eax,(%ebx)
  401666:	c7 04 24 20 03 00 00 	movl   $0x320,(%esp)
  40166d:	e8 da b6 00 00       	call   40cd4c <_malloc>
  401672:	89 45 f4             	mov    %eax,-0xc(%ebp)
  401675:	c7 44 24 04 64 00 00 	movl   $0x64,0x4(%esp)
  40167c:	00 
  40167d:	8b 45 f4             	mov    -0xc(%ebp),%eax
  401680:	89 04 24             	mov    %eax,(%esp)
  401683:	e8 44 ff ff ff       	call   4015cc <_initTail>
  401688:	8b 45 18             	mov    0x18(%ebp),%eax
  40168b:	8d 14 85 00 00 00 00 	lea    0x0(,%eax,4),%edx
  401692:	8b 45 08             	mov    0x8(%ebp),%eax
  401695:	01 d0                	add    %edx,%eax
  401697:	8b 00                	mov    (%eax),%eax
  401699:	8b 55 14             	mov    0x14(%ebp),%edx
  40169c:	89 54 24 08          	mov    %edx,0x8(%esp)
  4016a0:	8b 55 10             	mov    0x10(%ebp),%edx
  4016a3:	89 54 24 04          	mov    %edx,0x4(%esp)
  4016a7:	89 04 24             	mov    %eax,(%esp)
  4016aa:	e8 68 ff ff ff       	call   401617 <_initHead>
  4016af:	8b 45 18             	mov    0x18(%ebp),%eax
  4016b2:	8d 14 85 00 00 00 00 	lea    0x0(,%eax,4),%edx
  4016b9:	8b 45 08             	mov    0x8(%ebp),%eax
  4016bc:	01 d0                	add    %edx,%eax
  4016be:	8b 00                	mov    (%eax),%eax
  4016c0:	8b 55 f4             	mov    -0xc(%ebp),%edx
  4016c3:	89 50 10             	mov    %edx,0x10(%eax)
  4016c6:	8b 45 18             	mov    0x18(%ebp),%eax
  4016c9:	8d 14 85 00 00 00 00 	lea    0x0(,%eax,4),%edx
  4016d0:	8b 45 08             	mov    0x8(%ebp),%eax
  4016d3:	01 d0                	add    %edx,%eax
  4016d5:	8b 00                	mov    (%eax),%eax
  4016d7:	8b 55 0c             	mov    0xc(%ebp),%edx
  4016da:	83 c2 01             	add    $0x1,%edx
  4016dd:	89 50 0c             	mov    %edx,0xc(%eax)
  4016e0:	8b 45 18             	mov    0x18(%ebp),%eax
  4016e3:	8d 14 85 00 00 00 00 	lea    0x0(,%eax,4),%edx
  4016ea:	8b 45 08             	mov    0x8(%ebp),%eax
  4016ed:	01 d0                	add    %edx,%eax
  4016ef:	8b 00                	mov    (%eax),%eax
  4016f1:	c7 40 14 80 e0 40 00 	movl   $0x40e080,0x14(%eax)
  4016f8:	8b 45 18             	mov    0x18(%ebp),%eax
  4016fb:	8d 14 85 00 00 00 00 	lea    0x0(,%eax,4),%edx
  401702:	8b 45 08             	mov    0x8(%ebp),%eax
  401705:	01 d0                	add    %edx,%eax
  401707:	8b 00                	mov    (%eax),%eax
  401709:	8b 55 18             	mov    0x18(%ebp),%edx
  40170c:	89 50 18             	mov    %edx,0x18(%eax)
  40170f:	83 c4 24             	add    $0x24,%esp
  401712:	5b                   	pop    %ebx
  401713:	5d                   	pop    %ebp
  401714:	c3                   	ret    

00401715 <_initFood>:
  401715:	55                   	push   %ebp
  401716:	89 e5                	mov    %esp,%ebp
  401718:	83 ec 20             	sub    $0x20,%esp
  40171b:	e8 70 ba 00 00       	call   40d190 <_mcount>
  401720:	c7 45 ec 00 00 00 00 	movl   $0x0,-0x14(%ebp)
  401727:	c7 45 f0 00 00 00 00 	movl   $0x0,-0x10(%ebp)
  40172e:	c7 45 f4 00 00 00 00 	movl   $0x0,-0xc(%ebp)
  401735:	c6 45 f8 00          	movb   $0x0,-0x8(%ebp)
  401739:	c6 45 f9 00          	movb   $0x0,-0x7(%ebp)
  40173d:	c7 45 fc 00 00 00 00 	movl   $0x0,-0x4(%ebp)
  401744:	eb 28                	jmp    40176e <_initFood+0x59>
  401746:	8b 45 fc             	mov    -0x4(%ebp),%eax
  401749:	c1 e0 04             	shl    $0x4,%eax
  40174c:	89 c2                	mov    %eax,%edx
  40174e:	8b 45 08             	mov    0x8(%ebp),%eax
  401751:	01 d0                	add    %edx,%eax
  401753:	8b 55 ec             	mov    -0x14(%ebp),%edx
  401756:	89 10                	mov    %edx,(%eax)
  401758:	8b 55 f0             	mov    -0x10(%ebp),%edx
  40175b:	89 50 04             	mov    %edx,0x4(%eax)
  40175e:	8b 55 f4             	mov    -0xc(%ebp),%edx
  401761:	89 50 08             	mov    %edx,0x8(%eax)
  401764:	8b 55 f8             	mov    -0x8(%ebp),%edx
  401767:	89 50 0c             	mov    %edx,0xc(%eax)
  40176a:	83 45 fc 01          	addl   $0x1,-0x4(%ebp)
  40176e:	8b 45 fc             	mov    -0x4(%ebp),%eax
  401771:	3b 45 0c             	cmp    0xc(%ebp),%eax
  401774:	72 d0                	jb     401746 <_initFood+0x31>
  401776:	c9                   	leave  
  401777:	c3                   	ret    

00401778 <_go>:
  401778:	55                   	push   %ebp
  401779:	89 e5                	mov    %esp,%ebp
  40177b:	53                   	push   %ebx
  40177c:	83 ec 24             	sub    $0x24,%esp
  40177f:	e8 0c ba 00 00       	call   40d190 <_mcount>
  401784:	c6 45 f7 40          	movb   $0x40,-0x9(%ebp)
  401788:	8b 45 08             	mov    0x8(%ebp),%eax
  40178b:	8b 40 18             	mov    0x18(%eax),%eax
  40178e:	89 04 24             	mov    %eax,(%esp)
  401791:	e8 ca fd ff ff       	call   401560 <_setColor>
  401796:	c7 45 f0 00 00 00 00 	movl   $0x0,-0x10(%ebp)
  40179d:	c7 45 ec 00 00 00 00 	movl   $0x0,-0x14(%ebp)
  4017a4:	a1 38 20 41 00       	mov    0x412038,%eax
  4017a9:	89 04 24             	mov    %eax,(%esp)
  4017ac:	e8 9f 2b 00 00       	call   404350 <_getmaxy>
  4017b1:	89 45 ec             	mov    %eax,-0x14(%ebp)
  4017b4:	a1 38 20 41 00       	mov    0x412038,%eax
  4017b9:	89 04 24             	mov    %eax,(%esp)
  4017bc:	e8 af 2b 00 00       	call   404370 <_getmaxx>
  4017c1:	89 45 f0             	mov    %eax,-0x10(%ebp)
  4017c4:	8b 45 08             	mov    0x8(%ebp),%eax
  4017c7:	8b 10                	mov    (%eax),%edx
  4017c9:	8b 45 08             	mov    0x8(%ebp),%eax
  4017cc:	8b 40 04             	mov    0x4(%eax),%eax
  4017cf:	c7 44 24 08 30 f0 40 	movl   $0x40f030,0x8(%esp)
  4017d6:	00 
  4017d7:	89 54 24 04          	mov    %edx,0x4(%esp)
  4017db:	89 04 24             	mov    %eax,(%esp)
  4017de:	e8 7d 3f 00 00       	call   405760 <_mvprintw>
  4017e3:	8b 45 08             	mov    0x8(%ebp),%eax
  4017e6:	8b 40 08             	mov    0x8(%eax),%eax
  4017e9:	83 f8 02             	cmp    $0x2,%eax
  4017ec:	0f 84 b8 00 00 00    	je     4018aa <_go+0x132>
  4017f2:	83 f8 02             	cmp    $0x2,%eax
  4017f5:	7f 0a                	jg     401801 <_go+0x89>
  4017f7:	83 f8 01             	cmp    $0x1,%eax
  4017fa:	74 18                	je     401814 <_go+0x9c>
  4017fc:	e9 41 01 00 00       	jmp    401942 <_go+0x1ca>
  401801:	83 f8 03             	cmp    $0x3,%eax
  401804:	74 58                	je     40185e <_go+0xe6>
  401806:	83 f8 04             	cmp    $0x4,%eax
  401809:	0f 84 e7 00 00 00    	je     4018f6 <_go+0x17e>
  40180f:	e9 2e 01 00 00       	jmp    401942 <_go+0x1ca>
  401814:	8b 45 08             	mov    0x8(%ebp),%eax
  401817:	8b 00                	mov    (%eax),%eax
  401819:	85 c0                	test   %eax,%eax
  40181b:	7f 08                	jg     401825 <_go+0xad>
  40181d:	8b 45 08             	mov    0x8(%ebp),%eax
  401820:	8b 55 f0             	mov    -0x10(%ebp),%edx
  401823:	89 10                	mov    %edx,(%eax)
  401825:	0f be 4d f7          	movsbl -0x9(%ebp),%ecx
  401829:	8b 45 08             	mov    0x8(%ebp),%eax
  40182c:	8b 00                	mov    (%eax),%eax
  40182e:	8d 50 ff             	lea    -0x1(%eax),%edx
  401831:	8b 45 08             	mov    0x8(%ebp),%eax
  401834:	89 10                	mov    %edx,(%eax)
  401836:	8b 45 08             	mov    0x8(%ebp),%eax
  401839:	8b 10                	mov    (%eax),%edx
  40183b:	8b 45 08             	mov    0x8(%ebp),%eax
  40183e:	8b 40 04             	mov    0x4(%eax),%eax
  401841:	89 4c 24 0c          	mov    %ecx,0xc(%esp)
  401845:	c7 44 24 08 32 f0 40 	movl   $0x40f032,0x8(%esp)
  40184c:	00 
  40184d:	89 54 24 04          	mov    %edx,0x4(%esp)
  401851:	89 04 24             	mov    %eax,(%esp)
  401854:	e8 07 3f 00 00       	call   405760 <_mvprintw>
  401859:	e9 e4 00 00 00       	jmp    401942 <_go+0x1ca>
  40185e:	8b 45 08             	mov    0x8(%ebp),%eax
  401861:	8b 00                	mov    (%eax),%eax
  401863:	3b 45 f0             	cmp    -0x10(%ebp),%eax
  401866:	7c 09                	jl     401871 <_go+0xf9>
  401868:	8b 45 08             	mov    0x8(%ebp),%eax
  40186b:	c7 00 00 00 00 00    	movl   $0x0,(%eax)
  401871:	0f be 4d f7          	movsbl -0x9(%ebp),%ecx
  401875:	8b 45 08             	mov    0x8(%ebp),%eax
  401878:	8b 00                	mov    (%eax),%eax
  40187a:	8d 50 01             	lea    0x1(%eax),%edx
  40187d:	8b 45 08             	mov    0x8(%ebp),%eax
  401880:	89 10                	mov    %edx,(%eax)
  401882:	8b 45 08             	mov    0x8(%ebp),%eax
  401885:	8b 10                	mov    (%eax),%edx
  401887:	8b 45 08             	mov    0x8(%ebp),%eax
  40188a:	8b 40 04             	mov    0x4(%eax),%eax
  40188d:	89 4c 24 0c          	mov    %ecx,0xc(%esp)
  401891:	c7 44 24 08 32 f0 40 	movl   $0x40f032,0x8(%esp)
  401898:	00 
  401899:	89 54 24 04          	mov    %edx,0x4(%esp)
  40189d:	89 04 24             	mov    %eax,(%esp)
  4018a0:	e8 bb 3e 00 00       	call   405760 <_mvprintw>
  4018a5:	e9 98 00 00 00       	jmp    401942 <_go+0x1ca>
  4018aa:	8b 45 08             	mov    0x8(%ebp),%eax
  4018ad:	8b 40 04             	mov    0x4(%eax),%eax
  4018b0:	83 f8 02             	cmp    $0x2,%eax
  4018b3:	7f 09                	jg     4018be <_go+0x146>
  4018b5:	8b 45 08             	mov    0x8(%ebp),%eax
  4018b8:	8b 55 ec             	mov    -0x14(%ebp),%edx
  4018bb:	89 50 04             	mov    %edx,0x4(%eax)
  4018be:	0f be 4d f7          	movsbl -0x9(%ebp),%ecx
  4018c2:	8b 45 08             	mov    0x8(%ebp),%eax
  4018c5:	8b 10                	mov    (%eax),%edx
  4018c7:	8b 45 08             	mov    0x8(%ebp),%eax
  4018ca:	8b 40 04             	mov    0x4(%eax),%eax
  4018cd:	8d 58 ff             	lea    -0x1(%eax),%ebx
  4018d0:	8b 45 08             	mov    0x8(%ebp),%eax
  4018d3:	89 58 04             	mov    %ebx,0x4(%eax)
  4018d6:	8b 45 08             	mov    0x8(%ebp),%eax
  4018d9:	8b 40 04             	mov    0x4(%eax),%eax
  4018dc:	89 4c 24 0c          	mov    %ecx,0xc(%esp)
  4018e0:	c7 44 24 08 32 f0 40 	movl   $0x40f032,0x8(%esp)
  4018e7:	00 
  4018e8:	89 54 24 04          	mov    %edx,0x4(%esp)
  4018ec:	89 04 24             	mov    %eax,(%esp)
  4018ef:	e8 6c 3e 00 00       	call   405760 <_mvprintw>
  4018f4:	eb 4c                	jmp    401942 <_go+0x1ca>
  4018f6:	8b 45 08             	mov    0x8(%ebp),%eax
  4018f9:	8b 40 04             	mov    0x4(%eax),%eax
  4018fc:	3b 45 ec             	cmp    -0x14(%ebp),%eax
  4018ff:	7c 0a                	jl     40190b <_go+0x193>
  401901:	8b 45 08             	mov    0x8(%ebp),%eax
  401904:	c7 40 04 02 00 00 00 	movl   $0x2,0x4(%eax)
  40190b:	0f be 4d f7          	movsbl -0x9(%ebp),%ecx
  40190f:	8b 45 08             	mov    0x8(%ebp),%eax
  401912:	8b 10                	mov    (%eax),%edx
  401914:	8b 45 08             	mov    0x8(%ebp),%eax
  401917:	8b 40 04             	mov    0x4(%eax),%eax
  40191a:	8d 58 01             	lea    0x1(%eax),%ebx
  40191d:	8b 45 08             	mov    0x8(%ebp),%eax
  401920:	89 58 04             	mov    %ebx,0x4(%eax)
  401923:	8b 45 08             	mov    0x8(%ebp),%eax
  401926:	8b 40 04             	mov    0x4(%eax),%eax
  401929:	89 4c 24 0c          	mov    %ecx,0xc(%esp)
  40192d:	c7 44 24 08 32 f0 40 	movl   $0x40f032,0x8(%esp)
  401934:	00 
  401935:	89 54 24 04          	mov    %edx,0x4(%esp)
  401939:	89 04 24             	mov    %eax,(%esp)
  40193c:	e8 1f 3e 00 00       	call   405760 <_mvprintw>
  401941:	90                   	nop
  401942:	e8 49 44 00 00       	call   405d90 <_refresh>
  401947:	83 c4 24             	add    $0x24,%esp
  40194a:	5b                   	pop    %ebx
  40194b:	5d                   	pop    %ebp
  40194c:	c3                   	ret    

0040194d <_changeDirection>:
  40194d:	55                   	push   %ebp
  40194e:	89 e5                	mov    %esp,%ebp
  401950:	83 ec 10             	sub    $0x10,%esp
  401953:	e8 38 b8 00 00       	call   40d190 <_mcount>
  401958:	c7 45 fc 00 00 00 00 	movl   $0x0,-0x4(%ebp)
  40195f:	e9 89 00 00 00       	jmp    4019ed <_changeDirection+0xa0>
  401964:	8b 45 08             	mov    0x8(%ebp),%eax
  401967:	8b 40 14             	mov    0x14(%eax),%eax
  40196a:	8b 55 fc             	mov    -0x4(%ebp),%edx
  40196d:	c1 e2 04             	shl    $0x4,%edx
  401970:	01 d0                	add    %edx,%eax
  401972:	8b 00                	mov    (%eax),%eax
  401974:	3b 45 0c             	cmp    0xc(%ebp),%eax
  401977:	75 0c                	jne    401985 <_changeDirection+0x38>
  401979:	8b 45 08             	mov    0x8(%ebp),%eax
  40197c:	c7 40 08 04 00 00 00 	movl   $0x4,0x8(%eax)
  401983:	eb 64                	jmp    4019e9 <_changeDirection+0x9c>
  401985:	8b 45 08             	mov    0x8(%ebp),%eax
  401988:	8b 40 14             	mov    0x14(%eax),%eax
  40198b:	8b 55 fc             	mov    -0x4(%ebp),%edx
  40198e:	c1 e2 04             	shl    $0x4,%edx
  401991:	01 d0                	add    %edx,%eax
  401993:	8b 40 04             	mov    0x4(%eax),%eax
  401996:	3b 45 0c             	cmp    0xc(%ebp),%eax
  401999:	75 0c                	jne    4019a7 <_changeDirection+0x5a>
  40199b:	8b 45 08             	mov    0x8(%ebp),%eax
  40199e:	c7 40 08 02 00 00 00 	movl   $0x2,0x8(%eax)
  4019a5:	eb 42                	jmp    4019e9 <_changeDirection+0x9c>
  4019a7:	8b 45 08             	mov    0x8(%ebp),%eax
  4019aa:	8b 40 14             	mov    0x14(%eax),%eax
  4019ad:	8b 55 fc             	mov    -0x4(%ebp),%edx
  4019b0:	c1 e2 04             	shl    $0x4,%edx
  4019b3:	01 d0                	add    %edx,%eax
  4019b5:	8b 40 0c             	mov    0xc(%eax),%eax
  4019b8:	3b 45 0c             	cmp    0xc(%ebp),%eax
  4019bb:	75 0c                	jne    4019c9 <_changeDirection+0x7c>
  4019bd:	8b 45 08             	mov    0x8(%ebp),%eax
  4019c0:	c7 40 08 03 00 00 00 	movl   $0x3,0x8(%eax)
  4019c7:	eb 20                	jmp    4019e9 <_changeDirection+0x9c>
  4019c9:	8b 45 08             	mov    0x8(%ebp),%eax
  4019cc:	8b 40 14             	mov    0x14(%eax),%eax
  4019cf:	8b 55 fc             	mov    -0x4(%ebp),%edx
  4019d2:	c1 e2 04             	shl    $0x4,%edx
  4019d5:	01 d0                	add    %edx,%eax
  4019d7:	8b 40 08             	mov    0x8(%eax),%eax
  4019da:	3b 45 0c             	cmp    0xc(%ebp),%eax
  4019dd:	75 0a                	jne    4019e9 <_changeDirection+0x9c>
  4019df:	8b 45 08             	mov    0x8(%ebp),%eax
  4019e2:	c7 40 08 01 00 00 00 	movl   $0x1,0x8(%eax)
  4019e9:	83 45 fc 01          	addl   $0x1,-0x4(%ebp)
  4019ed:	83 7d fc 03          	cmpl   $0x3,-0x4(%ebp)
  4019f1:	0f 8e 6d ff ff ff    	jle    401964 <_changeDirection+0x17>
  4019f7:	c9                   	leave  
  4019f8:	c3                   	ret    

004019f9 <_checkDirection>:
  4019f9:	55                   	push   %ebp
  4019fa:	89 e5                	mov    %esp,%ebp
  4019fc:	83 ec 10             	sub    $0x10,%esp
  4019ff:	e8 8c b7 00 00       	call   40d190 <_mcount>
  401a04:	c7 45 fc 00 00 00 00 	movl   $0x0,-0x4(%ebp)
  401a0b:	e9 8e 00 00 00       	jmp    401a9e <_checkDirection+0xa5>
  401a10:	8b 45 08             	mov    0x8(%ebp),%eax
  401a13:	8b 40 14             	mov    0x14(%eax),%eax
  401a16:	8b 55 fc             	mov    -0x4(%ebp),%edx
  401a19:	c1 e2 04             	shl    $0x4,%edx
  401a1c:	01 d0                	add    %edx,%eax
  401a1e:	8b 00                	mov    (%eax),%eax
  401a20:	3b 45 0c             	cmp    0xc(%ebp),%eax
  401a23:	75 0b                	jne    401a30 <_checkDirection+0x37>
  401a25:	8b 45 08             	mov    0x8(%ebp),%eax
  401a28:	8b 40 08             	mov    0x8(%eax),%eax
  401a2b:	83 f8 02             	cmp    $0x2,%eax
  401a2e:	74 63                	je     401a93 <_checkDirection+0x9a>
  401a30:	8b 45 08             	mov    0x8(%ebp),%eax
  401a33:	8b 40 14             	mov    0x14(%eax),%eax
  401a36:	8b 55 fc             	mov    -0x4(%ebp),%edx
  401a39:	c1 e2 04             	shl    $0x4,%edx
  401a3c:	01 d0                	add    %edx,%eax
  401a3e:	8b 40 04             	mov    0x4(%eax),%eax
  401a41:	3b 45 0c             	cmp    0xc(%ebp),%eax
  401a44:	75 0b                	jne    401a51 <_checkDirection+0x58>
  401a46:	8b 45 08             	mov    0x8(%ebp),%eax
  401a49:	8b 40 08             	mov    0x8(%eax),%eax
  401a4c:	83 f8 04             	cmp    $0x4,%eax
  401a4f:	74 42                	je     401a93 <_checkDirection+0x9a>
  401a51:	8b 45 08             	mov    0x8(%ebp),%eax
  401a54:	8b 40 14             	mov    0x14(%eax),%eax
  401a57:	8b 55 fc             	mov    -0x4(%ebp),%edx
  401a5a:	c1 e2 04             	shl    $0x4,%edx
  401a5d:	01 d0                	add    %edx,%eax
  401a5f:	8b 40 08             	mov    0x8(%eax),%eax
  401a62:	3b 45 0c             	cmp    0xc(%ebp),%eax
  401a65:	75 0b                	jne    401a72 <_checkDirection+0x79>
  401a67:	8b 45 08             	mov    0x8(%ebp),%eax
  401a6a:	8b 40 08             	mov    0x8(%eax),%eax
  401a6d:	83 f8 03             	cmp    $0x3,%eax
  401a70:	74 21                	je     401a93 <_checkDirection+0x9a>
  401a72:	8b 45 08             	mov    0x8(%ebp),%eax
  401a75:	8b 40 14             	mov    0x14(%eax),%eax
  401a78:	8b 55 fc             	mov    -0x4(%ebp),%edx
  401a7b:	c1 e2 04             	shl    $0x4,%edx
  401a7e:	01 d0                	add    %edx,%eax
  401a80:	8b 40 0c             	mov    0xc(%eax),%eax
  401a83:	3b 45 0c             	cmp    0xc(%ebp),%eax
  401a86:	75 12                	jne    401a9a <_checkDirection+0xa1>
  401a88:	8b 45 08             	mov    0x8(%ebp),%eax
  401a8b:	8b 40 08             	mov    0x8(%eax),%eax
  401a8e:	83 f8 01             	cmp    $0x1,%eax
  401a91:	75 07                	jne    401a9a <_checkDirection+0xa1>
  401a93:	b8 00 00 00 00       	mov    $0x0,%eax
  401a98:	eb 13                	jmp    401aad <_checkDirection+0xb4>
  401a9a:	83 45 fc 01          	addl   $0x1,-0x4(%ebp)
  401a9e:	83 7d fc 03          	cmpl   $0x3,-0x4(%ebp)
  401aa2:	0f 8e 68 ff ff ff    	jle    401a10 <_checkDirection+0x17>
  401aa8:	b8 01 00 00 00       	mov    $0x1,%eax
  401aad:	c9                   	leave  
  401aae:	c3                   	ret    

00401aaf <_goTail>:
  401aaf:	55                   	push   %ebp
  401ab0:	89 e5                	mov    %esp,%ebp
  401ab2:	53                   	push   %ebx
  401ab3:	83 ec 24             	sub    $0x24,%esp
  401ab6:	e8 d5 b6 00 00       	call   40d190 <_mcount>
  401abb:	c6 45 f3 2a          	movb   $0x2a,-0xd(%ebp)
  401abf:	8b 45 08             	mov    0x8(%ebp),%eax
  401ac2:	8b 40 18             	mov    0x18(%eax),%eax
  401ac5:	89 04 24             	mov    %eax,(%esp)
  401ac8:	e8 93 fa ff ff       	call   401560 <_setColor>
  401acd:	8b 45 08             	mov    0x8(%ebp),%eax
  401ad0:	8b 50 10             	mov    0x10(%eax),%edx
  401ad3:	8b 45 08             	mov    0x8(%ebp),%eax
  401ad6:	8b 40 0c             	mov    0xc(%eax),%eax
  401ad9:	05 ff ff ff 1f       	add    $0x1fffffff,%eax
  401ade:	c1 e0 03             	shl    $0x3,%eax
  401ae1:	01 d0                	add    %edx,%eax
  401ae3:	8b 10                	mov    (%eax),%edx
  401ae5:	8b 45 08             	mov    0x8(%ebp),%eax
  401ae8:	8b 48 10             	mov    0x10(%eax),%ecx
  401aeb:	8b 45 08             	mov    0x8(%ebp),%eax
  401aee:	8b 40 0c             	mov    0xc(%eax),%eax
  401af1:	05 ff ff ff 1f       	add    $0x1fffffff,%eax
  401af6:	c1 e0 03             	shl    $0x3,%eax
  401af9:	01 c8                	add    %ecx,%eax
  401afb:	8b 40 04             	mov    0x4(%eax),%eax
  401afe:	c7 44 24 08 30 f0 40 	movl   $0x40f030,0x8(%esp)
  401b05:	00 
  401b06:	89 54 24 04          	mov    %edx,0x4(%esp)
  401b0a:	89 04 24             	mov    %eax,(%esp)
  401b0d:	e8 4e 3c 00 00       	call   405760 <_mvprintw>
  401b12:	8b 45 08             	mov    0x8(%ebp),%eax
  401b15:	8b 40 0c             	mov    0xc(%eax),%eax
  401b18:	83 e8 01             	sub    $0x1,%eax
  401b1b:	89 45 f4             	mov    %eax,-0xc(%ebp)
  401b1e:	e9 97 00 00 00       	jmp    401bba <_goTail+0x10b>
  401b23:	8b 45 08             	mov    0x8(%ebp),%eax
  401b26:	8b 40 10             	mov    0x10(%eax),%eax
  401b29:	8b 55 f4             	mov    -0xc(%ebp),%edx
  401b2c:	c1 e2 03             	shl    $0x3,%edx
  401b2f:	8d 0c 10             	lea    (%eax,%edx,1),%ecx
  401b32:	8b 45 08             	mov    0x8(%ebp),%eax
  401b35:	8b 40 10             	mov    0x10(%eax),%eax
  401b38:	8b 55 f4             	mov    -0xc(%ebp),%edx
  401b3b:	81 c2 ff ff ff 1f    	add    $0x1fffffff,%edx
  401b41:	c1 e2 03             	shl    $0x3,%edx
  401b44:	01 d0                	add    %edx,%eax
  401b46:	8b 50 04             	mov    0x4(%eax),%edx
  401b49:	8b 00                	mov    (%eax),%eax
  401b4b:	89 01                	mov    %eax,(%ecx)
  401b4d:	89 51 04             	mov    %edx,0x4(%ecx)
  401b50:	8b 45 08             	mov    0x8(%ebp),%eax
  401b53:	8b 40 10             	mov    0x10(%eax),%eax
  401b56:	8b 55 f4             	mov    -0xc(%ebp),%edx
  401b59:	c1 e2 03             	shl    $0x3,%edx
  401b5c:	01 d0                	add    %edx,%eax
  401b5e:	8b 40 04             	mov    0x4(%eax),%eax
  401b61:	85 c0                	test   %eax,%eax
  401b63:	75 14                	jne    401b79 <_goTail+0xca>
  401b65:	8b 45 08             	mov    0x8(%ebp),%eax
  401b68:	8b 40 10             	mov    0x10(%eax),%eax
  401b6b:	8b 55 f4             	mov    -0xc(%ebp),%edx
  401b6e:	c1 e2 03             	shl    $0x3,%edx
  401b71:	01 d0                	add    %edx,%eax
  401b73:	8b 00                	mov    (%eax),%eax
  401b75:	85 c0                	test   %eax,%eax
  401b77:	74 3d                	je     401bb6 <_goTail+0x107>
  401b79:	0f be 4d f3          	movsbl -0xd(%ebp),%ecx
  401b7d:	8b 45 08             	mov    0x8(%ebp),%eax
  401b80:	8b 40 10             	mov    0x10(%eax),%eax
  401b83:	8b 55 f4             	mov    -0xc(%ebp),%edx
  401b86:	c1 e2 03             	shl    $0x3,%edx
  401b89:	01 d0                	add    %edx,%eax
  401b8b:	8b 10                	mov    (%eax),%edx
  401b8d:	8b 45 08             	mov    0x8(%ebp),%eax
  401b90:	8b 40 10             	mov    0x10(%eax),%eax
  401b93:	8b 5d f4             	mov    -0xc(%ebp),%ebx
  401b96:	c1 e3 03             	shl    $0x3,%ebx
  401b99:	01 d8                	add    %ebx,%eax
  401b9b:	8b 40 04             	mov    0x4(%eax),%eax
  401b9e:	89 4c 24 0c          	mov    %ecx,0xc(%esp)
  401ba2:	c7 44 24 08 32 f0 40 	movl   $0x40f032,0x8(%esp)
  401ba9:	00 
  401baa:	89 54 24 04          	mov    %edx,0x4(%esp)
  401bae:	89 04 24             	mov    %eax,(%esp)
  401bb1:	e8 aa 3b 00 00       	call   405760 <_mvprintw>
  401bb6:	83 6d f4 01          	subl   $0x1,-0xc(%ebp)
  401bba:	83 7d f4 00          	cmpl   $0x0,-0xc(%ebp)
  401bbe:	0f 85 5f ff ff ff    	jne    401b23 <_goTail+0x74>
  401bc4:	8b 45 08             	mov    0x8(%ebp),%eax
  401bc7:	8b 40 10             	mov    0x10(%eax),%eax
  401bca:	8b 55 08             	mov    0x8(%ebp),%edx
  401bcd:	8b 12                	mov    (%edx),%edx
  401bcf:	89 10                	mov    %edx,(%eax)
  401bd1:	8b 45 08             	mov    0x8(%ebp),%eax
  401bd4:	8b 40 10             	mov    0x10(%eax),%eax
  401bd7:	8b 55 08             	mov    0x8(%ebp),%edx
  401bda:	8b 52 04             	mov    0x4(%edx),%edx
  401bdd:	89 50 04             	mov    %edx,0x4(%eax)
  401be0:	83 c4 24             	add    $0x24,%esp
  401be3:	5b                   	pop    %ebx
  401be4:	5d                   	pop    %ebp
  401be5:	c3                   	ret    

00401be6 <_putFoodSeed>:
  401be6:	55                   	push   %ebp
  401be7:	89 e5                	mov    %esp,%ebp
  401be9:	83 ec 28             	sub    $0x28,%esp
  401bec:	e8 9f b5 00 00       	call   40d190 <_mcount>
  401bf1:	c7 45 f4 00 00 00 00 	movl   $0x0,-0xc(%ebp)
  401bf8:	c7 45 f0 00 00 00 00 	movl   $0x0,-0x10(%ebp)
  401bff:	66 c7 45 ee 00 00    	movw   $0x0,-0x12(%ebp)
  401c05:	a1 38 20 41 00       	mov    0x412038,%eax
  401c0a:	89 04 24             	mov    %eax,(%esp)
  401c0d:	e8 3e 27 00 00       	call   404350 <_getmaxy>
  401c12:	89 45 f0             	mov    %eax,-0x10(%ebp)
  401c15:	a1 38 20 41 00       	mov    0x412038,%eax
  401c1a:	89 04 24             	mov    %eax,(%esp)
  401c1d:	e8 4e 27 00 00       	call   404370 <_getmaxx>
  401c22:	89 45 f4             	mov    %eax,-0xc(%ebp)
  401c25:	8b 45 08             	mov    0x8(%ebp),%eax
  401c28:	8b 10                	mov    (%eax),%edx
  401c2a:	8b 45 08             	mov    0x8(%ebp),%eax
  401c2d:	8b 40 04             	mov    0x4(%eax),%eax
  401c30:	c7 44 24 08 30 f0 40 	movl   $0x40f030,0x8(%esp)
  401c37:	00 
  401c38:	89 54 24 04          	mov    %edx,0x4(%esp)
  401c3c:	89 04 24             	mov    %eax,(%esp)
  401c3f:	e8 1c 3b 00 00       	call   405760 <_mvprintw>
  401c44:	e8 eb b0 00 00       	call   40cd34 <_rand>
  401c49:	89 c2                	mov    %eax,%edx
  401c4b:	8b 45 f4             	mov    -0xc(%ebp),%eax
  401c4e:	8d 48 ff             	lea    -0x1(%eax),%ecx
  401c51:	89 d0                	mov    %edx,%eax
  401c53:	99                   	cltd   
  401c54:	f7 f9                	idiv   %ecx
  401c56:	8b 45 08             	mov    0x8(%ebp),%eax
  401c59:	89 10                	mov    %edx,(%eax)
  401c5b:	e8 d4 b0 00 00       	call   40cd34 <_rand>
  401c60:	89 c2                	mov    %eax,%edx
  401c62:	8b 45 f0             	mov    -0x10(%ebp),%eax
  401c65:	8d 48 fe             	lea    -0x2(%eax),%ecx
  401c68:	89 d0                	mov    %edx,%eax
  401c6a:	99                   	cltd   
  401c6b:	f7 f9                	idiv   %ecx
  401c6d:	89 d0                	mov    %edx,%eax
  401c6f:	8d 50 01             	lea    0x1(%eax),%edx
  401c72:	8b 45 08             	mov    0x8(%ebp),%eax
  401c75:	89 50 04             	mov    %edx,0x4(%eax)
  401c78:	c7 04 24 00 00 00 00 	movl   $0x0,(%esp)
  401c7f:	e8 78 b0 00 00       	call   40ccfc <_time>
  401c84:	89 c2                	mov    %eax,%edx
  401c86:	8b 45 08             	mov    0x8(%ebp),%eax
  401c89:	89 50 08             	mov    %edx,0x8(%eax)
  401c8c:	8b 45 08             	mov    0x8(%ebp),%eax
  401c8f:	c6 40 0c 24          	movb   $0x24,0xc(%eax)
  401c93:	8b 45 08             	mov    0x8(%ebp),%eax
  401c96:	c6 40 0d 01          	movb   $0x1,0xd(%eax)
  401c9a:	8b 45 08             	mov    0x8(%ebp),%eax
  401c9d:	0f b6 40 0c          	movzbl 0xc(%eax),%eax
  401ca1:	88 45 ee             	mov    %al,-0x12(%ebp)
  401ca4:	c7 04 24 03 00 00 00 	movl   $0x3,(%esp)
  401cab:	e8 b0 f8 ff ff       	call   401560 <_setColor>
  401cb0:	8b 45 08             	mov    0x8(%ebp),%eax
  401cb3:	8b 10                	mov    (%eax),%edx
  401cb5:	8b 45 08             	mov    0x8(%ebp),%eax
  401cb8:	8b 40 04             	mov    0x4(%eax),%eax
  401cbb:	8d 4d ee             	lea    -0x12(%ebp),%ecx
  401cbe:	89 4c 24 0c          	mov    %ecx,0xc(%esp)
  401cc2:	c7 44 24 08 35 f0 40 	movl   $0x40f035,0x8(%esp)
  401cc9:	00 
  401cca:	89 54 24 04          	mov    %edx,0x4(%esp)
  401cce:	89 04 24             	mov    %eax,(%esp)
  401cd1:	e8 8a 3a 00 00       	call   405760 <_mvprintw>
  401cd6:	c9                   	leave  
  401cd7:	c3                   	ret    

00401cd8 <_putFood>:
  401cd8:	55                   	push   %ebp
  401cd9:	89 e5                	mov    %esp,%ebp
  401cdb:	83 ec 28             	sub    $0x28,%esp
  401cde:	e8 ad b4 00 00       	call   40d190 <_mcount>
  401ce3:	c7 45 f4 00 00 00 00 	movl   $0x0,-0xc(%ebp)
  401cea:	eb 19                	jmp    401d05 <_putFood+0x2d>
  401cec:	8b 45 f4             	mov    -0xc(%ebp),%eax
  401cef:	c1 e0 04             	shl    $0x4,%eax
  401cf2:	89 c2                	mov    %eax,%edx
  401cf4:	8b 45 08             	mov    0x8(%ebp),%eax
  401cf7:	01 d0                	add    %edx,%eax
  401cf9:	89 04 24             	mov    %eax,(%esp)
  401cfc:	e8 e5 fe ff ff       	call   401be6 <_putFoodSeed>
  401d01:	83 45 f4 01          	addl   $0x1,-0xc(%ebp)
  401d05:	8b 45 f4             	mov    -0xc(%ebp),%eax
  401d08:	3b 45 0c             	cmp    0xc(%ebp),%eax
  401d0b:	72 df                	jb     401cec <_putFood+0x14>
  401d0d:	c9                   	leave  
  401d0e:	c3                   	ret    

00401d0f <_refreshFood>:
  401d0f:	55                   	push   %ebp
  401d10:	89 e5                	mov    %esp,%ebp
  401d12:	83 ec 28             	sub    $0x28,%esp
  401d15:	e8 76 b4 00 00       	call   40d190 <_mcount>
  401d1a:	c7 45 f4 00 00 00 00 	movl   $0x0,-0xc(%ebp)
  401d21:	eb 69                	jmp    401d8c <_refreshFood+0x7d>
  401d23:	8b 45 f4             	mov    -0xc(%ebp),%eax
  401d26:	c1 e0 04             	shl    $0x4,%eax
  401d29:	89 c2                	mov    %eax,%edx
  401d2b:	8b 45 08             	mov    0x8(%ebp),%eax
  401d2e:	01 d0                	add    %edx,%eax
  401d30:	8b 40 08             	mov    0x8(%eax),%eax
  401d33:	85 c0                	test   %eax,%eax
  401d35:	74 51                	je     401d88 <_refreshFood+0x79>
  401d37:	8b 45 f4             	mov    -0xc(%ebp),%eax
  401d3a:	c1 e0 04             	shl    $0x4,%eax
  401d3d:	89 c2                	mov    %eax,%edx
  401d3f:	8b 45 08             	mov    0x8(%ebp),%eax
  401d42:	01 d0                	add    %edx,%eax
  401d44:	0f b6 40 0d          	movzbl 0xd(%eax),%eax
  401d48:	84 c0                	test   %al,%al
  401d4a:	74 27                	je     401d73 <_refreshFood+0x64>
  401d4c:	c7 04 24 00 00 00 00 	movl   $0x0,(%esp)
  401d53:	e8 a4 af 00 00       	call   40ccfc <_time>
  401d58:	89 c1                	mov    %eax,%ecx
  401d5a:	8b 45 f4             	mov    -0xc(%ebp),%eax
  401d5d:	c1 e0 04             	shl    $0x4,%eax
  401d60:	89 c2                	mov    %eax,%edx
  401d62:	8b 45 08             	mov    0x8(%ebp),%eax
  401d65:	01 d0                	add    %edx,%eax
  401d67:	8b 40 08             	mov    0x8(%eax),%eax
  401d6a:	29 c1                	sub    %eax,%ecx
  401d6c:	89 c8                	mov    %ecx,%eax
  401d6e:	83 f8 0a             	cmp    $0xa,%eax
  401d71:	7e 15                	jle    401d88 <_refreshFood+0x79>
  401d73:	8b 45 f4             	mov    -0xc(%ebp),%eax
  401d76:	c1 e0 04             	shl    $0x4,%eax
  401d79:	89 c2                	mov    %eax,%edx
  401d7b:	8b 45 08             	mov    0x8(%ebp),%eax
  401d7e:	01 d0                	add    %edx,%eax
  401d80:	89 04 24             	mov    %eax,(%esp)
  401d83:	e8 5e fe ff ff       	call   401be6 <_putFoodSeed>
  401d88:	83 45 f4 01          	addl   $0x1,-0xc(%ebp)
  401d8c:	8b 45 0c             	mov    0xc(%ebp),%eax
  401d8f:	3b 45 f4             	cmp    -0xc(%ebp),%eax
  401d92:	77 8f                	ja     401d23 <_refreshFood+0x14>
  401d94:	c9                   	leave  
  401d95:	c3                   	ret    

00401d96 <_repairSeed>:
  401d96:	55                   	push   %ebp
  401d97:	89 e5                	mov    %esp,%ebp
  401d99:	83 ec 28             	sub    $0x28,%esp
  401d9c:	e8 ef b3 00 00       	call   40d190 <_mcount>
  401da1:	c7 45 f4 00 00 00 00 	movl   $0x0,-0xc(%ebp)
  401da8:	e9 b5 00 00 00       	jmp    401e62 <_repairSeed+0xcc>
  401dad:	c7 45 f0 00 00 00 00 	movl   $0x0,-0x10(%ebp)
  401db4:	e9 99 00 00 00       	jmp    401e52 <_repairSeed+0xbc>
  401db9:	8b 45 f0             	mov    -0x10(%ebp),%eax
  401dbc:	c1 e0 04             	shl    $0x4,%eax
  401dbf:	89 c2                	mov    %eax,%edx
  401dc1:	8b 45 08             	mov    0x8(%ebp),%eax
  401dc4:	01 d0                	add    %edx,%eax
  401dc6:	8b 10                	mov    (%eax),%edx
  401dc8:	8b 45 10             	mov    0x10(%ebp),%eax
  401dcb:	8b 40 10             	mov    0x10(%eax),%eax
  401dce:	8b 4d f4             	mov    -0xc(%ebp),%ecx
  401dd1:	c1 e1 03             	shl    $0x3,%ecx
  401dd4:	01 c8                	add    %ecx,%eax
  401dd6:	8b 00                	mov    (%eax),%eax
  401dd8:	39 c2                	cmp    %eax,%edx
  401dda:	75 72                	jne    401e4e <_repairSeed+0xb8>
  401ddc:	8b 45 f0             	mov    -0x10(%ebp),%eax
  401ddf:	c1 e0 04             	shl    $0x4,%eax
  401de2:	89 c2                	mov    %eax,%edx
  401de4:	8b 45 08             	mov    0x8(%ebp),%eax
  401de7:	01 d0                	add    %edx,%eax
  401de9:	8b 50 04             	mov    0x4(%eax),%edx
  401dec:	8b 45 10             	mov    0x10(%ebp),%eax
  401def:	8b 40 10             	mov    0x10(%eax),%eax
  401df2:	8b 4d f4             	mov    -0xc(%ebp),%ecx
  401df5:	c1 e1 03             	shl    $0x3,%ecx
  401df8:	01 c8                	add    %ecx,%eax
  401dfa:	8b 40 04             	mov    0x4(%eax),%eax
  401dfd:	39 c2                	cmp    %eax,%edx
  401dff:	75 4d                	jne    401e4e <_repairSeed+0xb8>
  401e01:	8b 45 f4             	mov    -0xc(%ebp),%eax
  401e04:	c1 e0 04             	shl    $0x4,%eax
  401e07:	89 c2                	mov    %eax,%edx
  401e09:	8b 45 08             	mov    0x8(%ebp),%eax
  401e0c:	01 d0                	add    %edx,%eax
  401e0e:	0f b6 40 0d          	movzbl 0xd(%eax),%eax
  401e12:	84 c0                	test   %al,%al
  401e14:	74 38                	je     401e4e <_repairSeed+0xb8>
  401e16:	8b 45 f0             	mov    -0x10(%ebp),%eax
  401e19:	89 44 24 0c          	mov    %eax,0xc(%esp)
  401e1d:	c7 44 24 08 38 f0 40 	movl   $0x40f038,0x8(%esp)
  401e24:	00 
  401e25:	c7 44 24 04 00 00 00 	movl   $0x0,0x4(%esp)
  401e2c:	00 
  401e2d:	c7 04 24 01 00 00 00 	movl   $0x1,(%esp)
  401e34:	e8 27 39 00 00       	call   405760 <_mvprintw>
  401e39:	8b 45 f0             	mov    -0x10(%ebp),%eax
  401e3c:	c1 e0 04             	shl    $0x4,%eax
  401e3f:	89 c2                	mov    %eax,%edx
  401e41:	8b 45 08             	mov    0x8(%ebp),%eax
  401e44:	01 d0                	add    %edx,%eax
  401e46:	89 04 24             	mov    %eax,(%esp)
  401e49:	e8 98 fd ff ff       	call   401be6 <_putFoodSeed>
  401e4e:	83 45 f0 01          	addl   $0x1,-0x10(%ebp)
  401e52:	8b 45 f0             	mov    -0x10(%ebp),%eax
  401e55:	3b 45 0c             	cmp    0xc(%ebp),%eax
  401e58:	0f 82 5b ff ff ff    	jb     401db9 <_repairSeed+0x23>
  401e5e:	83 45 f4 01          	addl   $0x1,-0xc(%ebp)
  401e62:	8b 45 10             	mov    0x10(%ebp),%eax
  401e65:	8b 40 0c             	mov    0xc(%eax),%eax
  401e68:	3b 45 f4             	cmp    -0xc(%ebp),%eax
  401e6b:	0f 87 3c ff ff ff    	ja     401dad <_repairSeed+0x17>
  401e71:	c7 45 ec 00 00 00 00 	movl   $0x0,-0x14(%ebp)
  401e78:	e9 f1 00 00 00       	jmp    401f6e <_repairSeed+0x1d8>
  401e7d:	c7 45 e8 00 00 00 00 	movl   $0x0,-0x18(%ebp)
  401e84:	e9 d5 00 00 00       	jmp    401f5e <_repairSeed+0x1c8>
  401e89:	8b 45 ec             	mov    -0x14(%ebp),%eax
  401e8c:	3b 45 e8             	cmp    -0x18(%ebp),%eax
  401e8f:	0f 84 c5 00 00 00    	je     401f5a <_repairSeed+0x1c4>
  401e95:	8b 45 ec             	mov    -0x14(%ebp),%eax
  401e98:	c1 e0 04             	shl    $0x4,%eax
  401e9b:	89 c2                	mov    %eax,%edx
  401e9d:	8b 45 08             	mov    0x8(%ebp),%eax
  401ea0:	01 d0                	add    %edx,%eax
  401ea2:	0f b6 40 0d          	movzbl 0xd(%eax),%eax
  401ea6:	84 c0                	test   %al,%al
  401ea8:	0f 84 ac 00 00 00    	je     401f5a <_repairSeed+0x1c4>
  401eae:	8b 45 e8             	mov    -0x18(%ebp),%eax
  401eb1:	c1 e0 04             	shl    $0x4,%eax
  401eb4:	89 c2                	mov    %eax,%edx
  401eb6:	8b 45 08             	mov    0x8(%ebp),%eax
  401eb9:	01 d0                	add    %edx,%eax
  401ebb:	0f b6 40 0d          	movzbl 0xd(%eax),%eax
  401ebf:	84 c0                	test   %al,%al
  401ec1:	0f 84 93 00 00 00    	je     401f5a <_repairSeed+0x1c4>
  401ec7:	8b 45 e8             	mov    -0x18(%ebp),%eax
  401eca:	c1 e0 04             	shl    $0x4,%eax
  401ecd:	89 c2                	mov    %eax,%edx
  401ecf:	8b 45 08             	mov    0x8(%ebp),%eax
  401ed2:	01 d0                	add    %edx,%eax
  401ed4:	8b 10                	mov    (%eax),%edx
  401ed6:	8b 45 ec             	mov    -0x14(%ebp),%eax
  401ed9:	c1 e0 04             	shl    $0x4,%eax
  401edc:	89 c1                	mov    %eax,%ecx
  401ede:	8b 45 08             	mov    0x8(%ebp),%eax
  401ee1:	01 c8                	add    %ecx,%eax
  401ee3:	8b 00                	mov    (%eax),%eax
  401ee5:	39 c2                	cmp    %eax,%edx
  401ee7:	75 71                	jne    401f5a <_repairSeed+0x1c4>
  401ee9:	8b 45 e8             	mov    -0x18(%ebp),%eax
  401eec:	c1 e0 04             	shl    $0x4,%eax
  401eef:	89 c2                	mov    %eax,%edx
  401ef1:	8b 45 08             	mov    0x8(%ebp),%eax
  401ef4:	01 d0                	add    %edx,%eax
  401ef6:	8b 50 04             	mov    0x4(%eax),%edx
  401ef9:	8b 45 ec             	mov    -0x14(%ebp),%eax
  401efc:	c1 e0 04             	shl    $0x4,%eax
  401eff:	89 c1                	mov    %eax,%ecx
  401f01:	8b 45 08             	mov    0x8(%ebp),%eax
  401f04:	01 c8                	add    %ecx,%eax
  401f06:	8b 40 04             	mov    0x4(%eax),%eax
  401f09:	39 c2                	cmp    %eax,%edx
  401f0b:	75 4d                	jne    401f5a <_repairSeed+0x1c4>
  401f0d:	8b 45 ec             	mov    -0x14(%ebp),%eax
  401f10:	c1 e0 04             	shl    $0x4,%eax
  401f13:	89 c2                	mov    %eax,%edx
  401f15:	8b 45 08             	mov    0x8(%ebp),%eax
  401f18:	01 d0                	add    %edx,%eax
  401f1a:	0f b6 40 0d          	movzbl 0xd(%eax),%eax
  401f1e:	84 c0                	test   %al,%al
  401f20:	74 38                	je     401f5a <_repairSeed+0x1c4>
  401f22:	8b 45 e8             	mov    -0x18(%ebp),%eax
  401f25:	89 44 24 0c          	mov    %eax,0xc(%esp)
  401f29:	c7 44 24 08 4c f0 40 	movl   $0x40f04c,0x8(%esp)
  401f30:	00 
  401f31:	c7 44 24 04 00 00 00 	movl   $0x0,0x4(%esp)
  401f38:	00 
  401f39:	c7 04 24 01 00 00 00 	movl   $0x1,(%esp)
  401f40:	e8 1b 38 00 00       	call   405760 <_mvprintw>
  401f45:	8b 45 e8             	mov    -0x18(%ebp),%eax
  401f48:	c1 e0 04             	shl    $0x4,%eax
  401f4b:	89 c2                	mov    %eax,%edx
  401f4d:	8b 45 08             	mov    0x8(%ebp),%eax
  401f50:	01 d0                	add    %edx,%eax
  401f52:	89 04 24             	mov    %eax,(%esp)
  401f55:	e8 8c fc ff ff       	call   401be6 <_putFoodSeed>
  401f5a:	83 45 e8 01          	addl   $0x1,-0x18(%ebp)
  401f5e:	8b 45 e8             	mov    -0x18(%ebp),%eax
  401f61:	3b 45 0c             	cmp    0xc(%ebp),%eax
  401f64:	0f 82 1f ff ff ff    	jb     401e89 <_repairSeed+0xf3>
  401f6a:	83 45 ec 01          	addl   $0x1,-0x14(%ebp)
  401f6e:	8b 45 ec             	mov    -0x14(%ebp),%eax
  401f71:	3b 45 0c             	cmp    0xc(%ebp),%eax
  401f74:	0f 82 03 ff ff ff    	jb     401e7d <_repairSeed+0xe7>
  401f7a:	c9                   	leave  
  401f7b:	c3                   	ret    

00401f7c <_haveEat>:
  401f7c:	55                   	push   %ebp
  401f7d:	89 e5                	mov    %esp,%ebp
  401f7f:	83 ec 10             	sub    $0x10,%esp
  401f82:	e8 09 b2 00 00       	call   40d190 <_mcount>
  401f87:	c7 45 fc 00 00 00 00 	movl   $0x0,-0x4(%ebp)
  401f8e:	eb 63                	jmp    401ff3 <_haveEat+0x77>
  401f90:	8b 45 fc             	mov    -0x4(%ebp),%eax
  401f93:	c1 e0 04             	shl    $0x4,%eax
  401f96:	89 c2                	mov    %eax,%edx
  401f98:	8b 45 0c             	mov    0xc(%ebp),%eax
  401f9b:	01 d0                	add    %edx,%eax
  401f9d:	0f b6 40 0d          	movzbl 0xd(%eax),%eax
  401fa1:	84 c0                	test   %al,%al
  401fa3:	74 4a                	je     401fef <_haveEat+0x73>
  401fa5:	8b 45 08             	mov    0x8(%ebp),%eax
  401fa8:	8b 10                	mov    (%eax),%edx
  401faa:	8b 45 fc             	mov    -0x4(%ebp),%eax
  401fad:	c1 e0 04             	shl    $0x4,%eax
  401fb0:	89 c1                	mov    %eax,%ecx
  401fb2:	8b 45 0c             	mov    0xc(%ebp),%eax
  401fb5:	01 c8                	add    %ecx,%eax
  401fb7:	8b 00                	mov    (%eax),%eax
  401fb9:	39 c2                	cmp    %eax,%edx
  401fbb:	75 32                	jne    401fef <_haveEat+0x73>
  401fbd:	8b 45 08             	mov    0x8(%ebp),%eax
  401fc0:	8b 50 04             	mov    0x4(%eax),%edx
  401fc3:	8b 45 fc             	mov    -0x4(%ebp),%eax
  401fc6:	c1 e0 04             	shl    $0x4,%eax
  401fc9:	89 c1                	mov    %eax,%ecx
  401fcb:	8b 45 0c             	mov    0xc(%ebp),%eax
  401fce:	01 c8                	add    %ecx,%eax
  401fd0:	8b 40 04             	mov    0x4(%eax),%eax
  401fd3:	39 c2                	cmp    %eax,%edx
  401fd5:	75 18                	jne    401fef <_haveEat+0x73>
  401fd7:	8b 45 fc             	mov    -0x4(%ebp),%eax
  401fda:	c1 e0 04             	shl    $0x4,%eax
  401fdd:	89 c2                	mov    %eax,%edx
  401fdf:	8b 45 0c             	mov    0xc(%ebp),%eax
  401fe2:	01 d0                	add    %edx,%eax
  401fe4:	c6 40 0d 00          	movb   $0x0,0xd(%eax)
  401fe8:	b8 01 00 00 00       	mov    $0x1,%eax
  401fed:	eb 0f                	jmp    401ffe <_haveEat+0x82>
  401fef:	83 45 fc 01          	addl   $0x1,-0x4(%ebp)
  401ff3:	83 7d fc 13          	cmpl   $0x13,-0x4(%ebp)
  401ff7:	76 97                	jbe    401f90 <_haveEat+0x14>
  401ff9:	b8 00 00 00 00       	mov    $0x0,%eax
  401ffe:	c9                   	leave  
  401fff:	c3                   	ret    

00402000 <_addTail>:
  402000:	55                   	push   %ebp
  402001:	89 e5                	mov    %esp,%ebp
  402003:	83 ec 18             	sub    $0x18,%esp
  402006:	e8 85 b1 00 00       	call   40d190 <_mcount>
  40200b:	83 7d 08 00          	cmpl   $0x0,0x8(%ebp)
  40200f:	74 0b                	je     40201c <_addTail+0x1c>
  402011:	8b 45 08             	mov    0x8(%ebp),%eax
  402014:	8b 40 0c             	mov    0xc(%eax),%eax
  402017:	83 f8 64             	cmp    $0x64,%eax
  40201a:	76 1e                	jbe    40203a <_addTail+0x3a>
  40201c:	c7 44 24 08 60 f0 40 	movl   $0x40f060,0x8(%esp)
  402023:	00 
  402024:	c7 44 24 04 00 00 00 	movl   $0x0,0x4(%esp)
  40202b:	00 
  40202c:	c7 04 24 00 00 00 00 	movl   $0x0,(%esp)
  402033:	e8 28 37 00 00       	call   405760 <_mvprintw>
  402038:	eb 0f                	jmp    402049 <_addTail+0x49>
  40203a:	8b 45 08             	mov    0x8(%ebp),%eax
  40203d:	8b 40 0c             	mov    0xc(%eax),%eax
  402040:	8d 50 01             	lea    0x1(%eax),%edx
  402043:	8b 45 08             	mov    0x8(%ebp),%eax
  402046:	89 50 0c             	mov    %edx,0xc(%eax)
  402049:	c9                   	leave  
  40204a:	c3                   	ret    

0040204b <_printLevel>:
  40204b:	55                   	push   %ebp
  40204c:	89 e5                	mov    %esp,%ebp
  40204e:	83 ec 28             	sub    $0x28,%esp
  402051:	e8 3a b1 00 00       	call   40d190 <_mcount>
  402056:	c7 45 f4 00 00 00 00 	movl   $0x0,-0xc(%ebp)
  40205d:	c7 45 f0 00 00 00 00 	movl   $0x0,-0x10(%ebp)
  402064:	a1 38 20 41 00       	mov    0x412038,%eax
  402069:	89 04 24             	mov    %eax,(%esp)
  40206c:	e8 df 22 00 00       	call   404350 <_getmaxy>
  402071:	89 45 f0             	mov    %eax,-0x10(%ebp)
  402074:	a1 38 20 41 00       	mov    0x412038,%eax
  402079:	89 04 24             	mov    %eax,(%esp)
  40207c:	e8 ef 22 00 00       	call   404370 <_getmaxx>
  402081:	89 45 f4             	mov    %eax,-0xc(%ebp)
  402084:	8b 45 08             	mov    0x8(%ebp),%eax
  402087:	8b 40 0c             	mov    0xc(%eax),%eax
  40208a:	8b 55 f4             	mov    -0xc(%ebp),%edx
  40208d:	83 ea 0a             	sub    $0xa,%edx
  402090:	89 44 24 0c          	mov    %eax,0xc(%esp)
  402094:	c7 44 24 08 6f f0 40 	movl   $0x40f06f,0x8(%esp)
  40209b:	00 
  40209c:	89 54 24 04          	mov    %edx,0x4(%esp)
  4020a0:	c7 04 24 00 00 00 00 	movl   $0x0,(%esp)
  4020a7:	e8 b4 36 00 00       	call   405760 <_mvprintw>
  4020ac:	c9                   	leave  
  4020ad:	c3                   	ret    

004020ae <_printExit>:
  4020ae:	55                   	push   %ebp
  4020af:	89 e5                	mov    %esp,%ebp
  4020b1:	53                   	push   %ebx
  4020b2:	83 ec 24             	sub    $0x24,%esp
  4020b5:	e8 d6 b0 00 00       	call   40d190 <_mcount>
  4020ba:	c7 45 f4 00 00 00 00 	movl   $0x0,-0xc(%ebp)
  4020c1:	c7 45 f0 00 00 00 00 	movl   $0x0,-0x10(%ebp)
  4020c8:	a1 38 20 41 00       	mov    0x412038,%eax
  4020cd:	89 04 24             	mov    %eax,(%esp)
  4020d0:	e8 7b 22 00 00       	call   404350 <_getmaxy>
  4020d5:	89 45 f0             	mov    %eax,-0x10(%ebp)
  4020d8:	a1 38 20 41 00       	mov    0x412038,%eax
  4020dd:	89 04 24             	mov    %eax,(%esp)
  4020e0:	e8 8b 22 00 00       	call   404370 <_getmaxx>
  4020e5:	89 45 f4             	mov    %eax,-0xc(%ebp)
  4020e8:	8b 45 08             	mov    0x8(%ebp),%eax
  4020eb:	8b 50 0c             	mov    0xc(%eax),%edx
  4020ee:	8b 45 f4             	mov    -0xc(%ebp),%eax
  4020f1:	89 c1                	mov    %eax,%ecx
  4020f3:	c1 e9 1f             	shr    $0x1f,%ecx
  4020f6:	01 c8                	add    %ecx,%eax
  4020f8:	d1 f8                	sar    %eax
  4020fa:	8d 48 fb             	lea    -0x5(%eax),%ecx
  4020fd:	8b 45 f0             	mov    -0x10(%ebp),%eax
  402100:	89 c3                	mov    %eax,%ebx
  402102:	c1 eb 1f             	shr    $0x1f,%ebx
  402105:	01 d8                	add    %ebx,%eax
  402107:	d1 f8                	sar    %eax
  402109:	89 54 24 0c          	mov    %edx,0xc(%esp)
  40210d:	c7 44 24 08 79 f0 40 	movl   $0x40f079,0x8(%esp)
  402114:	00 
  402115:	89 4c 24 04          	mov    %ecx,0x4(%esp)
  402119:	89 04 24             	mov    %eax,(%esp)
  40211c:	e8 3f 36 00 00       	call   405760 <_mvprintw>
  402121:	83 c4 24             	add    $0x24,%esp
  402124:	5b                   	pop    %ebx
  402125:	5d                   	pop    %ebp
  402126:	c3                   	ret    

00402127 <_distance>:
  402127:	55                   	push   %ebp
  402128:	89 e5                	mov    %esp,%ebp
  40212a:	e8 61 b0 00 00       	call   40d190 <_mcount>
  40212f:	8b 55 08             	mov    0x8(%ebp),%edx
  402132:	8b 45 28             	mov    0x28(%ebp),%eax
  402135:	29 c2                	sub    %eax,%edx
  402137:	89 d0                	mov    %edx,%eax
  402139:	c1 f8 1f             	sar    $0x1f,%eax
  40213c:	31 c2                	xor    %eax,%edx
  40213e:	29 c2                	sub    %eax,%edx
  402140:	8b 4d 0c             	mov    0xc(%ebp),%ecx
  402143:	8b 45 2c             	mov    0x2c(%ebp),%eax
  402146:	29 c1                	sub    %eax,%ecx
  402148:	89 c8                	mov    %ecx,%eax
  40214a:	89 c1                	mov    %eax,%ecx
  40214c:	c1 f9 1f             	sar    $0x1f,%ecx
  40214f:	31 c8                	xor    %ecx,%eax
  402151:	29 c8                	sub    %ecx,%eax
  402153:	01 d0                	add    %edx,%eax
  402155:	5d                   	pop    %ebp
  402156:	c3                   	ret    

00402157 <_autoChangeDirection>:
  402157:	55                   	push   %ebp
  402158:	89 e5                	mov    %esp,%ebp
  40215a:	53                   	push   %ebx
  40215b:	83 ec 40             	sub    $0x40,%esp
  40215e:	e8 2d b0 00 00       	call   40d190 <_mcount>
  402163:	c7 45 f8 00 00 00 00 	movl   $0x0,-0x8(%ebp)
  40216a:	c7 45 f4 01 00 00 00 	movl   $0x1,-0xc(%ebp)
  402171:	e9 e1 00 00 00       	jmp    402257 <_autoChangeDirection+0x100>
  402176:	8b 45 f4             	mov    -0xc(%ebp),%eax
  402179:	c1 e0 04             	shl    $0x4,%eax
  40217c:	89 c2                	mov    %eax,%edx
  40217e:	8b 45 0c             	mov    0xc(%ebp),%eax
  402181:	01 d0                	add    %edx,%eax
  402183:	8b 10                	mov    (%eax),%edx
  402185:	89 54 24 20          	mov    %edx,0x20(%esp)
  402189:	8b 50 04             	mov    0x4(%eax),%edx
  40218c:	89 54 24 24          	mov    %edx,0x24(%esp)
  402190:	8b 50 08             	mov    0x8(%eax),%edx
  402193:	89 54 24 28          	mov    %edx,0x28(%esp)
  402197:	8b 40 0c             	mov    0xc(%eax),%eax
  40219a:	89 44 24 2c          	mov    %eax,0x2c(%esp)
  40219e:	8b 45 08             	mov    0x8(%ebp),%eax
  4021a1:	8b 10                	mov    (%eax),%edx
  4021a3:	89 14 24             	mov    %edx,(%esp)
  4021a6:	8b 50 04             	mov    0x4(%eax),%edx
  4021a9:	89 54 24 04          	mov    %edx,0x4(%esp)
  4021ad:	8b 50 08             	mov    0x8(%eax),%edx
  4021b0:	89 54 24 08          	mov    %edx,0x8(%esp)
  4021b4:	8b 50 0c             	mov    0xc(%eax),%edx
  4021b7:	89 54 24 0c          	mov    %edx,0xc(%esp)
  4021bb:	8b 50 10             	mov    0x10(%eax),%edx
  4021be:	89 54 24 10          	mov    %edx,0x10(%esp)
  4021c2:	8b 50 14             	mov    0x14(%eax),%edx
  4021c5:	89 54 24 14          	mov    %edx,0x14(%esp)
  4021c9:	8b 50 18             	mov    0x18(%eax),%edx
  4021cc:	89 54 24 18          	mov    %edx,0x18(%esp)
  4021d0:	8b 40 1c             	mov    0x1c(%eax),%eax
  4021d3:	89 44 24 1c          	mov    %eax,0x1c(%esp)
  4021d7:	e8 4b ff ff ff       	call   402127 <_distance>
  4021dc:	89 c3                	mov    %eax,%ebx
  4021de:	8b 45 f8             	mov    -0x8(%ebp),%eax
  4021e1:	c1 e0 04             	shl    $0x4,%eax
  4021e4:	89 c2                	mov    %eax,%edx
  4021e6:	8b 45 0c             	mov    0xc(%ebp),%eax
  4021e9:	01 d0                	add    %edx,%eax
  4021eb:	8b 10                	mov    (%eax),%edx
  4021ed:	89 54 24 20          	mov    %edx,0x20(%esp)
  4021f1:	8b 50 04             	mov    0x4(%eax),%edx
  4021f4:	89 54 24 24          	mov    %edx,0x24(%esp)
  4021f8:	8b 50 08             	mov    0x8(%eax),%edx
  4021fb:	89 54 24 28          	mov    %edx,0x28(%esp)
  4021ff:	8b 40 0c             	mov    0xc(%eax),%eax
  402202:	89 44 24 2c          	mov    %eax,0x2c(%esp)
  402206:	8b 45 08             	mov    0x8(%ebp),%eax
  402209:	8b 10                	mov    (%eax),%edx
  40220b:	89 14 24             	mov    %edx,(%esp)
  40220e:	8b 50 04             	mov    0x4(%eax),%edx
  402211:	89 54 24 04          	mov    %edx,0x4(%esp)
  402215:	8b 50 08             	mov    0x8(%eax),%edx
  402218:	89 54 24 08          	mov    %edx,0x8(%esp)
  40221c:	8b 50 0c             	mov    0xc(%eax),%edx
  40221f:	89 54 24 0c          	mov    %edx,0xc(%esp)
  402223:	8b 50 10             	mov    0x10(%eax),%edx
  402226:	89 54 24 10          	mov    %edx,0x10(%esp)
  40222a:	8b 50 14             	mov    0x14(%eax),%edx
  40222d:	89 54 24 14          	mov    %edx,0x14(%esp)
  402231:	8b 50 18             	mov    0x18(%eax),%edx
  402234:	89 54 24 18          	mov    %edx,0x18(%esp)
  402238:	8b 40 1c             	mov    0x1c(%eax),%eax
  40223b:	89 44 24 1c          	mov    %eax,0x1c(%esp)
  40223f:	e8 e3 fe ff ff       	call   402127 <_distance>
  402244:	39 c3                	cmp    %eax,%ebx
  402246:	7d 05                	jge    40224d <_autoChangeDirection+0xf6>
  402248:	8b 45 f4             	mov    -0xc(%ebp),%eax
  40224b:	eb 03                	jmp    402250 <_autoChangeDirection+0xf9>
  40224d:	8b 45 f8             	mov    -0x8(%ebp),%eax
  402250:	89 45 f8             	mov    %eax,-0x8(%ebp)
  402253:	83 45 f4 01          	addl   $0x1,-0xc(%ebp)
  402257:	8b 45 f4             	mov    -0xc(%ebp),%eax
  40225a:	3b 45 10             	cmp    0x10(%ebp),%eax
  40225d:	0f 8c 13 ff ff ff    	jl     402176 <_autoChangeDirection+0x1f>
  402263:	8b 45 08             	mov    0x8(%ebp),%eax
  402266:	8b 40 08             	mov    0x8(%eax),%eax
  402269:	83 f8 03             	cmp    $0x3,%eax
  40226c:	74 0b                	je     402279 <_autoChangeDirection+0x122>
  40226e:	8b 45 08             	mov    0x8(%ebp),%eax
  402271:	8b 40 08             	mov    0x8(%eax),%eax
  402274:	83 f8 01             	cmp    $0x1,%eax
  402277:	75 48                	jne    4022c1 <_autoChangeDirection+0x16a>
  402279:	8b 45 08             	mov    0x8(%ebp),%eax
  40227c:	8b 50 04             	mov    0x4(%eax),%edx
  40227f:	8b 45 f8             	mov    -0x8(%ebp),%eax
  402282:	c1 e0 04             	shl    $0x4,%eax
  402285:	89 c1                	mov    %eax,%ecx
  402287:	8b 45 0c             	mov    0xc(%ebp),%eax
  40228a:	01 c8                	add    %ecx,%eax
  40228c:	8b 40 04             	mov    0x4(%eax),%eax
  40228f:	39 c2                	cmp    %eax,%edx
  402291:	74 2e                	je     4022c1 <_autoChangeDirection+0x16a>
  402293:	8b 45 f8             	mov    -0x8(%ebp),%eax
  402296:	c1 e0 04             	shl    $0x4,%eax
  402299:	89 c2                	mov    %eax,%edx
  40229b:	8b 45 0c             	mov    0xc(%ebp),%eax
  40229e:	01 d0                	add    %edx,%eax
  4022a0:	8b 50 04             	mov    0x4(%eax),%edx
  4022a3:	8b 45 08             	mov    0x8(%ebp),%eax
  4022a6:	8b 40 04             	mov    0x4(%eax),%eax
  4022a9:	39 c2                	cmp    %eax,%edx
  4022ab:	7e 07                	jle    4022b4 <_autoChangeDirection+0x15d>
  4022ad:	ba 04 00 00 00       	mov    $0x4,%edx
  4022b2:	eb 05                	jmp    4022b9 <_autoChangeDirection+0x162>
  4022b4:	ba 02 00 00 00       	mov    $0x2,%edx
  4022b9:	8b 45 08             	mov    0x8(%ebp),%eax
  4022bc:	89 50 08             	mov    %edx,0x8(%eax)
  4022bf:	eb 58                	jmp    402319 <_autoChangeDirection+0x1c2>
  4022c1:	8b 45 08             	mov    0x8(%ebp),%eax
  4022c4:	8b 40 08             	mov    0x8(%eax),%eax
  4022c7:	83 f8 04             	cmp    $0x4,%eax
  4022ca:	74 0b                	je     4022d7 <_autoChangeDirection+0x180>
  4022cc:	8b 45 08             	mov    0x8(%ebp),%eax
  4022cf:	8b 40 08             	mov    0x8(%eax),%eax
  4022d2:	83 f8 02             	cmp    $0x2,%eax
  4022d5:	75 42                	jne    402319 <_autoChangeDirection+0x1c2>
  4022d7:	8b 45 08             	mov    0x8(%ebp),%eax
  4022da:	8b 10                	mov    (%eax),%edx
  4022dc:	8b 45 f8             	mov    -0x8(%ebp),%eax
  4022df:	c1 e0 04             	shl    $0x4,%eax
  4022e2:	89 c1                	mov    %eax,%ecx
  4022e4:	8b 45 0c             	mov    0xc(%ebp),%eax
  4022e7:	01 c8                	add    %ecx,%eax
  4022e9:	8b 00                	mov    (%eax),%eax
  4022eb:	39 c2                	cmp    %eax,%edx
  4022ed:	74 2a                	je     402319 <_autoChangeDirection+0x1c2>
  4022ef:	8b 45 f8             	mov    -0x8(%ebp),%eax
  4022f2:	c1 e0 04             	shl    $0x4,%eax
  4022f5:	89 c2                	mov    %eax,%edx
  4022f7:	8b 45 0c             	mov    0xc(%ebp),%eax
  4022fa:	01 d0                	add    %edx,%eax
  4022fc:	8b 10                	mov    (%eax),%edx
  4022fe:	8b 45 08             	mov    0x8(%ebp),%eax
  402301:	8b 00                	mov    (%eax),%eax
  402303:	39 c2                	cmp    %eax,%edx
  402305:	7e 07                	jle    40230e <_autoChangeDirection+0x1b7>
  402307:	ba 03 00 00 00       	mov    $0x3,%edx
  40230c:	eb 05                	jmp    402313 <_autoChangeDirection+0x1bc>
  40230e:	ba 01 00 00 00       	mov    $0x1,%edx
  402313:	8b 45 08             	mov    0x8(%ebp),%eax
  402316:	89 50 08             	mov    %edx,0x8(%eax)
  402319:	83 c4 40             	add    $0x40,%esp
  40231c:	5b                   	pop    %ebx
  40231d:	5d                   	pop    %ebp
  40231e:	c3                   	ret    

0040231f <_update>:
  40231f:	55                   	push   %ebp
  402320:	89 e5                	mov    %esp,%ebp
  402322:	83 ec 28             	sub    $0x28,%esp
  402325:	e8 66 ae 00 00       	call   40d190 <_mcount>
  40232a:	83 7d 14 01          	cmpl   $0x1,0x14(%ebp)
  40232e:	75 1a                	jne    40234a <_update+0x2b>
  402330:	c7 44 24 08 03 00 00 	movl   $0x3,0x8(%esp)
  402337:	00 
  402338:	8b 45 0c             	mov    0xc(%ebp),%eax
  40233b:	89 44 24 04          	mov    %eax,0x4(%esp)
  40233f:	8b 45 08             	mov    0x8(%ebp),%eax
  402342:	89 04 24             	mov    %eax,(%esp)
  402345:	e8 0d fe ff ff       	call   402157 <_autoChangeDirection>
  40234a:	8b 45 08             	mov    0x8(%ebp),%eax
  40234d:	89 04 24             	mov    %eax,(%esp)
  402350:	e8 23 f4 ff ff       	call   401778 <_go>
  402355:	8b 45 08             	mov    0x8(%ebp),%eax
  402358:	89 04 24             	mov    %eax,(%esp)
  40235b:	e8 4f f7 ff ff       	call   401aaf <_goTail>
  402360:	8b 45 10             	mov    0x10(%ebp),%eax
  402363:	89 44 24 04          	mov    %eax,0x4(%esp)
  402367:	8b 45 08             	mov    0x8(%ebp),%eax
  40236a:	89 04 24             	mov    %eax,(%esp)
  40236d:	e8 87 f6 ff ff       	call   4019f9 <_checkDirection>
  402372:	85 c0                	test   %eax,%eax
  402374:	74 12                	je     402388 <_update+0x69>
  402376:	8b 45 10             	mov    0x10(%ebp),%eax
  402379:	89 44 24 04          	mov    %eax,0x4(%esp)
  40237d:	8b 45 08             	mov    0x8(%ebp),%eax
  402380:	89 04 24             	mov    %eax,(%esp)
  402383:	e8 c5 f5 ff ff       	call   40194d <_changeDirection>
  402388:	c7 44 24 04 03 00 00 	movl   $0x3,0x4(%esp)
  40238f:	00 
  402390:	c7 04 24 40 2b 41 00 	movl   $0x412b40,(%esp)
  402397:	e8 73 f9 ff ff       	call   401d0f <_refreshFood>
  40239c:	c7 44 24 04 40 2b 41 	movl   $0x412b40,0x4(%esp)
  4023a3:	00 
  4023a4:	8b 45 08             	mov    0x8(%ebp),%eax
  4023a7:	89 04 24             	mov    %eax,(%esp)
  4023aa:	e8 cd fb ff ff       	call   401f7c <_haveEat>
  4023af:	84 c0                	test   %al,%al
  4023b1:	74 30                	je     4023e3 <_update+0xc4>
  4023b3:	8b 45 08             	mov    0x8(%ebp),%eax
  4023b6:	89 04 24             	mov    %eax,(%esp)
  4023b9:	e8 42 fc ff ff       	call   402000 <_addTail>
  4023be:	8b 45 08             	mov    0x8(%ebp),%eax
  4023c1:	89 04 24             	mov    %eax,(%esp)
  4023c4:	e8 82 fc ff ff       	call   40204b <_printLevel>
  4023c9:	dd 05 40 e0 40 00    	fldl   0x40e040
  4023cf:	db 2d c0 f1 40 00    	fldt   0x40f1c0
  4023d5:	de e9                	fsubrp %st,%st(1)
  4023d7:	dd 5d f0             	fstpl  -0x10(%ebp)
  4023da:	dd 45 f0             	fldl   -0x10(%ebp)
  4023dd:	dd 1d 40 e0 40 00    	fstpl  0x40e040
  4023e3:	c9                   	leave  
  4023e4:	c3                   	ret    

004023e5 <_pause>:
  4023e5:	55                   	push   %ebp
  4023e6:	89 e5                	mov    %esp,%ebp
  4023e8:	83 ec 28             	sub    $0x28,%esp
  4023eb:	e8 a0 ad 00 00       	call   40d190 <_mcount>
  4023f0:	c7 45 f4 00 00 00 00 	movl   $0x0,-0xc(%ebp)
  4023f7:	c7 45 f0 00 00 00 00 	movl   $0x0,-0x10(%ebp)
  4023fe:	a1 38 20 41 00       	mov    0x412038,%eax
  402403:	89 04 24             	mov    %eax,(%esp)
  402406:	e8 45 1f 00 00       	call   404350 <_getmaxy>
  40240b:	89 45 f0             	mov    %eax,-0x10(%ebp)
  40240e:	a1 38 20 41 00       	mov    0x412038,%eax
  402413:	89 04 24             	mov    %eax,(%esp)
  402416:	e8 55 1f 00 00       	call   404370 <_getmaxx>
  40241b:	89 45 f4             	mov    %eax,-0xc(%ebp)
  40241e:	8b 45 f4             	mov    -0xc(%ebp),%eax
  402421:	89 c2                	mov    %eax,%edx
  402423:	c1 ea 1f             	shr    $0x1f,%edx
  402426:	01 d0                	add    %edx,%eax
  402428:	d1 f8                	sar    %eax
  40242a:	8d 50 fb             	lea    -0x5(%eax),%edx
  40242d:	8b 45 f0             	mov    -0x10(%ebp),%eax
  402430:	89 c1                	mov    %eax,%ecx
  402432:	c1 e9 1f             	shr    $0x1f,%ecx
  402435:	01 c8                	add    %ecx,%eax
  402437:	d1 f8                	sar    %eax
  402439:	c7 44 24 08 8a f0 40 	movl   $0x40f08a,0x8(%esp)
  402440:	00 
  402441:	89 54 24 04          	mov    %edx,0x4(%esp)
  402445:	89 04 24             	mov    %eax,(%esp)
  402448:	e8 13 33 00 00       	call   405760 <_mvprintw>
  40244d:	90                   	nop
  40244e:	a1 38 20 41 00       	mov    0x412038,%eax
  402453:	89 04 24             	mov    %eax,(%esp)
  402456:	e8 15 17 00 00       	call   403b70 <_wgetch>
  40245b:	83 f8 70             	cmp    $0x70,%eax
  40245e:	75 ee                	jne    40244e <_pause+0x69>
  402460:	8b 45 f4             	mov    -0xc(%ebp),%eax
  402463:	89 c2                	mov    %eax,%edx
  402465:	c1 ea 1f             	shr    $0x1f,%edx
  402468:	01 d0                	add    %edx,%eax
  40246a:	d1 f8                	sar    %eax
  40246c:	8d 50 fb             	lea    -0x5(%eax),%edx
  40246f:	8b 45 f0             	mov    -0x10(%ebp),%eax
  402472:	89 c1                	mov    %eax,%ecx
  402474:	c1 e9 1f             	shr    $0x1f,%ecx
  402477:	01 c8                	add    %ecx,%eax
  402479:	d1 f8                	sar    %eax
  40247b:	c7 44 24 08 a3 f0 40 	movl   $0x40f0a3,0x8(%esp)
  402482:	00 
  402483:	89 54 24 04          	mov    %edx,0x4(%esp)
  402487:	89 04 24             	mov    %eax,(%esp)
  40248a:	e8 d1 32 00 00       	call   405760 <_mvprintw>
  40248f:	c9                   	leave  
  402490:	c3                   	ret    

00402491 <_isCrush>:
  402491:	55                   	push   %ebp
  402492:	89 e5                	mov    %esp,%ebp
  402494:	83 ec 10             	sub    $0x10,%esp
  402497:	e8 f4 ac 00 00       	call   40d190 <_mcount>
  40249c:	c7 45 fc 01 00 00 00 	movl   $0x1,-0x4(%ebp)
  4024a3:	eb 3f                	jmp    4024e4 <_isCrush+0x53>
  4024a5:	8b 45 08             	mov    0x8(%ebp),%eax
  4024a8:	8b 10                	mov    (%eax),%edx
  4024aa:	8b 45 08             	mov    0x8(%ebp),%eax
  4024ad:	8b 40 10             	mov    0x10(%eax),%eax
  4024b0:	8b 4d fc             	mov    -0x4(%ebp),%ecx
  4024b3:	c1 e1 03             	shl    $0x3,%ecx
  4024b6:	01 c8                	add    %ecx,%eax
  4024b8:	8b 00                	mov    (%eax),%eax
  4024ba:	39 c2                	cmp    %eax,%edx
  4024bc:	75 22                	jne    4024e0 <_isCrush+0x4f>
  4024be:	8b 45 08             	mov    0x8(%ebp),%eax
  4024c1:	8b 50 04             	mov    0x4(%eax),%edx
  4024c4:	8b 45 08             	mov    0x8(%ebp),%eax
  4024c7:	8b 40 10             	mov    0x10(%eax),%eax
  4024ca:	8b 4d fc             	mov    -0x4(%ebp),%ecx
  4024cd:	c1 e1 03             	shl    $0x3,%ecx
  4024d0:	01 c8                	add    %ecx,%eax
  4024d2:	8b 40 04             	mov    0x4(%eax),%eax
  4024d5:	39 c2                	cmp    %eax,%edx
  4024d7:	75 07                	jne    4024e0 <_isCrush+0x4f>
  4024d9:	b8 00 00 00 00       	mov    $0x0,%eax
  4024de:	eb 14                	jmp    4024f4 <_isCrush+0x63>
  4024e0:	83 45 fc 01          	addl   $0x1,-0x4(%ebp)
  4024e4:	8b 45 08             	mov    0x8(%ebp),%eax
  4024e7:	8b 40 0c             	mov    0xc(%eax),%eax
  4024ea:	3b 45 fc             	cmp    -0x4(%ebp),%eax
  4024ed:	77 b6                	ja     4024a5 <_isCrush+0x14>
  4024ef:	b8 00 00 00 00       	mov    $0x0,%eax
  4024f4:	c9                   	leave  
  4024f5:	c3                   	ret    

004024f6 <_startMenu>:
  4024f6:	55                   	push   %ebp
  4024f7:	89 e5                	mov    %esp,%ebp
  4024f9:	83 ec 28             	sub    $0x28,%esp
  4024fc:	e8 8f ac 00 00       	call   40d190 <_mcount>
  402501:	e8 da 1e 00 00       	call   4043e0 <_initscr>
  402506:	e8 85 27 00 00       	call   404c90 <_noecho>
  40250b:	c7 04 24 00 00 00 00 	movl   $0x0,(%esp)
  402512:	e8 99 2c 00 00       	call   4051b0 <_curs_set>
  402517:	e8 14 27 00 00       	call   404c30 <_cbreak>
  40251c:	e8 df 0d 00 00       	call   403300 <_has_colors>
  402521:	83 f0 01             	xor    $0x1,%eax
  402524:	84 c0                	test   %al,%al
  402526:	74 1d                	je     402545 <_startMenu+0x4f>
  402528:	e8 83 23 00 00       	call   4048b0 <_endwin>
  40252d:	c7 04 24 bc f0 40 00 	movl   $0x40f0bc,(%esp)
  402534:	e8 03 a8 00 00       	call   40cd3c <_puts>
  402539:	c7 04 24 01 00 00 00 	movl   $0x1,(%esp)
  402540:	e8 2f a8 00 00       	call   40cd74 <_exit>
  402545:	e8 d6 10 00 00       	call   403620 <_start_color>
  40254a:	c7 44 24 08 00 00 00 	movl   $0x0,0x8(%esp)
  402551:	00 
  402552:	c7 44 24 04 04 00 00 	movl   $0x4,0x4(%esp)
  402559:	00 
  40255a:	c7 04 24 01 00 00 00 	movl   $0x1,(%esp)
  402561:	e8 2a 0d 00 00       	call   403290 <_init_pair>
  402566:	c7 44 24 08 00 00 00 	movl   $0x0,0x8(%esp)
  40256d:	00 
  40256e:	c7 44 24 04 06 00 00 	movl   $0x6,0x4(%esp)
  402575:	00 
  402576:	c7 04 24 02 00 00 00 	movl   $0x2,(%esp)
  40257d:	e8 0e 0d 00 00       	call   403290 <_init_pair>
  402582:	c7 04 24 00 00 00 01 	movl   $0x1000000,(%esp)
  402589:	e8 02 05 00 00       	call   402a90 <_attron>
  40258e:	c7 44 24 08 e1 f0 40 	movl   $0x40f0e1,0x8(%esp)
  402595:	00 
  402596:	c7 44 24 04 01 00 00 	movl   $0x1,0x4(%esp)
  40259d:	00 
  40259e:	c7 04 24 01 00 00 00 	movl   $0x1,(%esp)
  4025a5:	e8 b6 31 00 00       	call   405760 <_mvprintw>
  4025aa:	c7 04 24 00 00 00 01 	movl   $0x1000000,(%esp)
  4025b1:	e8 4a 04 00 00       	call   402a00 <_attroff>
  4025b6:	c7 04 24 00 00 00 02 	movl   $0x2000000,(%esp)
  4025bd:	e8 ce 04 00 00       	call   402a90 <_attron>
  4025c2:	c7 44 24 08 ea f0 40 	movl   $0x40f0ea,0x8(%esp)
  4025c9:	00 
  4025ca:	c7 44 24 04 01 00 00 	movl   $0x1,0x4(%esp)
  4025d1:	00 
  4025d2:	c7 04 24 03 00 00 00 	movl   $0x3,(%esp)
  4025d9:	e8 82 31 00 00       	call   405760 <_mvprintw>
  4025de:	c7 04 24 00 00 00 01 	movl   $0x1000000,(%esp)
  4025e5:	e8 a6 04 00 00       	call   402a90 <_attron>
  4025ea:	c7 44 24 08 f4 f0 40 	movl   $0x40f0f4,0x8(%esp)
  4025f1:	00 
  4025f2:	c7 44 24 04 1e 00 00 	movl   $0x1e,0x4(%esp)
  4025f9:	00 
  4025fa:	c7 04 24 07 00 00 00 	movl   $0x7,(%esp)
  402601:	e8 5a 31 00 00       	call   405760 <_mvprintw>
  402606:	c7 04 24 00 00 00 02 	movl   $0x2000000,(%esp)
  40260d:	e8 7e 04 00 00       	call   402a90 <_attron>
  402612:	c7 44 24 08 34 f1 40 	movl   $0x40f134,0x8(%esp)
  402619:	00 
  40261a:	c7 44 24 04 1e 00 00 	movl   $0x1e,0x4(%esp)
  402621:	00 
  402622:	c7 04 24 0a 00 00 00 	movl   $0xa,(%esp)
  402629:	e8 32 31 00 00       	call   405760 <_mvprintw>
  40262e:	c7 44 24 08 f4 f0 40 	movl   $0x40f0f4,0x8(%esp)
  402635:	00 
  402636:	c7 44 24 04 1e 00 00 	movl   $0x1e,0x4(%esp)
  40263d:	00 
  40263e:	c7 04 24 0d 00 00 00 	movl   $0xd,(%esp)
  402645:	e8 16 31 00 00       	call   405760 <_mvprintw>
  40264a:	c6 45 f7 00          	movb   $0x0,-0x9(%ebp)
  40264e:	a1 38 20 41 00       	mov    0x412038,%eax
  402653:	89 04 24             	mov    %eax,(%esp)
  402656:	e8 15 15 00 00       	call   403b70 <_wgetch>
  40265b:	88 45 f7             	mov    %al,-0x9(%ebp)
  40265e:	80 7d f7 31          	cmpb   $0x31,-0x9(%ebp)
  402662:	75 57                	jne    4026bb <_startMenu+0x1c5>
  402664:	e8 27 0b 00 00       	call   403190 <_clear>
  402669:	c7 04 24 00 00 00 02 	movl   $0x2000000,(%esp)
  402670:	e8 1b 04 00 00       	call   402a90 <_attron>
  402675:	c7 44 24 08 6e f1 40 	movl   $0x40f16e,0x8(%esp)
  40267c:	00 
  40267d:	c7 44 24 04 32 00 00 	movl   $0x32,0x4(%esp)
  402684:	00 
  402685:	c7 04 24 0a 00 00 00 	movl   $0xa,(%esp)
  40268c:	e8 cf 30 00 00       	call   405760 <_mvprintw>
  402691:	c7 04 24 00 00 00 01 	movl   $0x1000000,(%esp)
  402698:	e8 f3 03 00 00       	call   402a90 <_attron>
  40269d:	c7 44 24 08 79 f1 40 	movl   $0x40f179,0x8(%esp)
  4026a4:	00 
  4026a5:	c7 44 24 04 32 00 00 	movl   $0x32,0x4(%esp)
  4026ac:	00 
  4026ad:	c7 04 24 14 00 00 00 	movl   $0x14,(%esp)
  4026b4:	e8 a7 30 00 00       	call   405760 <_mvprintw>
  4026b9:	eb 1c                	jmp    4026d7 <_startMenu+0x1e1>
  4026bb:	80 7d f7 32          	cmpb   $0x32,-0x9(%ebp)
  4026bf:	75 11                	jne    4026d2 <_startMenu+0x1dc>
  4026c1:	e8 ea 21 00 00       	call   4048b0 <_endwin>
  4026c6:	c7 04 24 00 00 00 00 	movl   $0x0,(%esp)
  4026cd:	e8 a2 a6 00 00       	call   40cd74 <_exit>
  4026d2:	e9 77 ff ff ff       	jmp    40264e <_startMenu+0x158>
  4026d7:	e8 b4 36 00 00       	call   405d90 <_refresh>
  4026dc:	a1 38 20 41 00       	mov    0x412038,%eax
  4026e1:	89 04 24             	mov    %eax,(%esp)
  4026e4:	e8 87 14 00 00       	call   403b70 <_wgetch>
  4026e9:	e8 c2 21 00 00       	call   4048b0 <_endwin>
  4026ee:	c9                   	leave  
  4026ef:	c3                   	ret    

004026f0 <_main>:
  4026f0:	55                   	push   %ebp
  4026f1:	89 e5                	mov    %esp,%ebp
  4026f3:	83 e4 f0             	and    $0xfffffff0,%esp
  4026f6:	83 ec 50             	sub    $0x50,%esp
  4026f9:	e8 92 aa 00 00       	call   40d190 <_mcount>
  4026fe:	e8 2d b1 00 00       	call   40d830 <__monstartup>
  402703:	e8 08 97 00 00       	call   40be10 <___main>
  402708:	e8 e9 fd ff ff       	call   4024f6 <_startMenu>
  40270d:	c7 44 24 4c 00 00 00 	movl   $0x0,0x4c(%esp)
  402714:	00 
  402715:	eb 4d                	jmp    402764 <_main+0x74>
  402717:	8b 44 24 4c          	mov    0x4c(%esp),%eax
  40271b:	8d 50 01             	lea    0x1(%eax),%edx
  40271e:	89 d0                	mov    %edx,%eax
  402720:	c1 e0 02             	shl    $0x2,%eax
  402723:	01 d0                	add    %edx,%eax
  402725:	01 c0                	add    %eax,%eax
  402727:	89 c1                	mov    %eax,%ecx
  402729:	8b 44 24 4c          	mov    0x4c(%esp),%eax
  40272d:	8d 50 01             	lea    0x1(%eax),%edx
  402730:	89 d0                	mov    %edx,%eax
  402732:	c1 e0 02             	shl    $0x2,%eax
  402735:	01 d0                	add    %edx,%eax
  402737:	01 c0                	add    %eax,%eax
  402739:	89 c2                	mov    %eax,%edx
  40273b:	8b 44 24 4c          	mov    0x4c(%esp),%eax
  40273f:	89 44 24 10          	mov    %eax,0x10(%esp)
  402743:	89 4c 24 0c          	mov    %ecx,0xc(%esp)
  402747:	89 54 24 08          	mov    %edx,0x8(%esp)
  40274b:	c7 44 24 04 0a 00 00 	movl   $0xa,0x4(%esp)
  402752:	00 
  402753:	8d 44 24 30          	lea    0x30(%esp),%eax
  402757:	89 04 24             	mov    %eax,(%esp)
  40275a:	e8 dd ee ff ff       	call   40163c <_initSnake>
  40275f:	83 44 24 4c 01       	addl   $0x1,0x4c(%esp)
  402764:	83 7c 24 4c 01       	cmpl   $0x1,0x4c(%esp)
  402769:	7e ac                	jle    402717 <_main+0x27>
  40276b:	8b 44 24 30          	mov    0x30(%esp),%eax
  40276f:	c7 40 14 c0 e0 40 00 	movl   $0x40e0c0,0x14(%eax)
  402776:	8b 44 24 34          	mov    0x34(%esp),%eax
  40277a:	c7 40 14 00 e1 40 00 	movl   $0x40e100,0x14(%eax)
  402781:	e8 5a 1c 00 00       	call   4043e0 <_initscr>
  402786:	a1 38 20 41 00       	mov    0x412038,%eax
  40278b:	c7 44 24 04 01 00 00 	movl   $0x1,0x4(%esp)
  402792:	00 
  402793:	89 04 24             	mov    %eax,(%esp)
  402796:	e8 55 25 00 00       	call   404cf0 <_keypad>
  40279b:	e8 00 26 00 00       	call   404da0 <_raw>
  4027a0:	e8 eb 24 00 00       	call   404c90 <_noecho>
  4027a5:	c7 04 24 00 00 00 00 	movl   $0x0,(%esp)
  4027ac:	e8 ff 29 00 00       	call   4051b0 <_curs_set>
  4027b1:	c7 44 24 08 8c f1 40 	movl   $0x40f18c,0x8(%esp)
  4027b8:	00 
  4027b9:	c7 44 24 04 00 00 00 	movl   $0x0,0x4(%esp)
  4027c0:	00 
  4027c1:	c7 04 24 00 00 00 00 	movl   $0x0,(%esp)
  4027c8:	e8 93 2f 00 00       	call   405760 <_mvprintw>
  4027cd:	e8 4e 0e 00 00       	call   403620 <_start_color>
  4027d2:	c7 44 24 08 00 00 00 	movl   $0x0,0x8(%esp)
  4027d9:	00 
  4027da:	c7 44 24 04 04 00 00 	movl   $0x4,0x4(%esp)
  4027e1:	00 
  4027e2:	c7 04 24 01 00 00 00 	movl   $0x1,(%esp)
  4027e9:	e8 a2 0a 00 00       	call   403290 <_init_pair>
  4027ee:	c7 44 24 08 00 00 00 	movl   $0x0,0x8(%esp)
  4027f5:	00 
  4027f6:	c7 44 24 04 01 00 00 	movl   $0x1,0x4(%esp)
  4027fd:	00 
  4027fe:	c7 04 24 02 00 00 00 	movl   $0x2,(%esp)
  402805:	e8 86 0a 00 00       	call   403290 <_init_pair>
  40280a:	c7 44 24 08 00 00 00 	movl   $0x0,0x8(%esp)
  402811:	00 
  402812:	c7 44 24 04 02 00 00 	movl   $0x2,0x4(%esp)
  402819:	00 
  40281a:	c7 04 24 03 00 00 00 	movl   $0x3,(%esp)
  402821:	e8 6a 0a 00 00       	call   403290 <_init_pair>
  402826:	c7 04 24 00 00 00 00 	movl   $0x0,(%esp)
  40282d:	e8 0e 26 00 00       	call   404e40 <_timeout>
  402832:	c7 44 24 04 14 00 00 	movl   $0x14,0x4(%esp)
  402839:	00 
  40283a:	c7 04 24 40 2b 41 00 	movl   $0x412b40,(%esp)
  402841:	e8 cf ee ff ff       	call   401715 <_initFood>
  402846:	c7 44 24 04 03 00 00 	movl   $0x3,0x4(%esp)
  40284d:	00 
  40284e:	c7 04 24 40 2b 41 00 	movl   $0x412b40,(%esp)
  402855:	e8 7e f4 ff ff       	call   401cd8 <_putFood>
  40285a:	c7 44 24 48 00 00 00 	movl   $0x0,0x48(%esp)
  402861:	00 
  402862:	c7 44 24 44 00 00 00 	movl   $0x0,0x44(%esp)
  402869:	00 
  40286a:	e9 f3 00 00 00       	jmp    402962 <_main+0x272>
  40286f:	e8 08 a5 00 00       	call   40cd7c <_clock>
  402874:	89 44 24 38          	mov    %eax,0x38(%esp)
  402878:	a1 38 20 41 00       	mov    0x412038,%eax
  40287d:	89 04 24             	mov    %eax,(%esp)
  402880:	e8 eb 12 00 00       	call   403b70 <_wgetch>
  402885:	89 44 24 48          	mov    %eax,0x48(%esp)
  402889:	8b 44 24 30          	mov    0x30(%esp),%eax
  40288d:	c7 44 24 0c 00 00 00 	movl   $0x0,0xc(%esp)
  402894:	00 
  402895:	8b 54 24 48          	mov    0x48(%esp),%edx
  402899:	89 54 24 08          	mov    %edx,0x8(%esp)
  40289d:	c7 44 24 04 40 2b 41 	movl   $0x412b40,0x4(%esp)
  4028a4:	00 
  4028a5:	89 04 24             	mov    %eax,(%esp)
  4028a8:	e8 72 fa ff ff       	call   40231f <_update>
  4028ad:	8b 44 24 34          	mov    0x34(%esp),%eax
  4028b1:	c7 44 24 0c 01 00 00 	movl   $0x1,0xc(%esp)
  4028b8:	00 
  4028b9:	8b 54 24 48          	mov    0x48(%esp),%edx
  4028bd:	89 54 24 08          	mov    %edx,0x8(%esp)
  4028c1:	c7 44 24 04 40 2b 41 	movl   $0x412b40,0x4(%esp)
  4028c8:	00 
  4028c9:	89 04 24             	mov    %eax,(%esp)
  4028cc:	e8 4e fa ff ff       	call   40231f <_update>
  4028d1:	8b 44 24 30          	mov    0x30(%esp),%eax
  4028d5:	89 04 24             	mov    %eax,(%esp)
  4028d8:	e8 b4 fb ff ff       	call   402491 <_isCrush>
  4028dd:	84 c0                	test   %al,%al
  4028df:	74 14                	je     4028f5 <_main+0x205>
  4028e1:	8b 44 24 30          	mov    0x30(%esp),%eax
  4028e5:	89 04 24             	mov    %eax,(%esp)
  4028e8:	e8 c1 f7 ff ff       	call   4020ae <_printExit>
  4028ed:	c7 44 24 44 01 00 00 	movl   $0x1,0x44(%esp)
  4028f4:	00 
  4028f5:	c7 44 24 40 00 00 00 	movl   $0x0,0x40(%esp)
  4028fc:	00 
  4028fd:	eb 25                	jmp    402924 <_main+0x234>
  4028ff:	8b 44 24 40          	mov    0x40(%esp),%eax
  402903:	8b 44 84 30          	mov    0x30(%esp,%eax,4),%eax
  402907:	89 44 24 08          	mov    %eax,0x8(%esp)
  40290b:	c7 44 24 04 03 00 00 	movl   $0x3,0x4(%esp)
  402912:	00 
  402913:	c7 04 24 40 2b 41 00 	movl   $0x412b40,(%esp)
  40291a:	e8 77 f4 ff ff       	call   401d96 <_repairSeed>
  40291f:	83 44 24 40 01       	addl   $0x1,0x40(%esp)
  402924:	83 7c 24 40 01       	cmpl   $0x1,0x40(%esp)
  402929:	7e d4                	jle    4028ff <_main+0x20f>
  40292b:	83 7c 24 48 70       	cmpl   $0x70,0x48(%esp)
  402930:	75 05                	jne    402937 <_main+0x247>
  402932:	e8 ae fa ff ff       	call   4023e5 <_pause>
  402937:	e8 54 34 00 00       	call   405d90 <_refresh>
  40293c:	90                   	nop
  40293d:	e8 3a a4 00 00       	call   40cd7c <_clock>
  402942:	2b 44 24 38          	sub    0x38(%esp),%eax
  402946:	89 44 24 2c          	mov    %eax,0x2c(%esp)
  40294a:	db 44 24 2c          	fildl  0x2c(%esp)
  40294e:	db 2d d0 f1 40 00    	fldt   0x40f1d0
  402954:	de f9                	fdivrp %st,%st(1)
  402956:	dd 05 40 e0 40 00    	fldl   0x40e040
  40295c:	df e9                	fucomip %st(1),%st
  40295e:	dd d8                	fstp   %st(0)
  402960:	77 db                	ja     40293d <_main+0x24d>
  402962:	81 7c 24 48 12 01 00 	cmpl   $0x112,0x48(%esp)
  402969:	00 
  40296a:	74 0b                	je     402977 <_main+0x287>
  40296c:	83 7c 24 44 00       	cmpl   $0x0,0x44(%esp)
  402971:	0f 84 f8 fe ff ff    	je     40286f <_main+0x17f>
  402977:	c7 44 24 3c 00 00 00 	movl   $0x0,0x3c(%esp)
  40297e:	00 
  40297f:	eb 28                	jmp    4029a9 <_main+0x2b9>
  402981:	8b 44 24 3c          	mov    0x3c(%esp),%eax
  402985:	8b 44 84 30          	mov    0x30(%esp,%eax,4),%eax
  402989:	8b 40 10             	mov    0x10(%eax),%eax
  40298c:	89 04 24             	mov    %eax,(%esp)
  40298f:	e8 d0 a3 00 00       	call   40cd64 <_free>
  402994:	8b 44 24 3c          	mov    0x3c(%esp),%eax
  402998:	8b 44 84 30          	mov    0x30(%esp,%eax,4),%eax
  40299c:	89 04 24             	mov    %eax,(%esp)
  40299f:	e8 c0 a3 00 00       	call   40cd64 <_free>
  4029a4:	83 44 24 3c 01       	addl   $0x1,0x3c(%esp)
  4029a9:	83 7c 24 3c 01       	cmpl   $0x1,0x3c(%esp)
  4029ae:	7e d1                	jle    402981 <_main+0x291>
  4029b0:	c7 04 24 01 00 00 00 	movl   $0x1,(%esp)
  4029b7:	e8 a4 eb ff ff       	call   401560 <_setColor>
  4029bc:	e8 ef 1e 00 00       	call   4048b0 <_endwin>
  4029c1:	b8 00 00 00 00       	mov    $0x0,%eax
  4029c6:	c9                   	leave  
  4029c7:	c3                   	ret    
  4029c8:	66 90                	xchg   %ax,%ax
  4029ca:	66 90                	xchg   %ax,%ax
  4029cc:	66 90                	xchg   %ax,%ax
  4029ce:	66 90                	xchg   %ax,%ax

004029d0 <_wattroff>:
  4029d0:	8b 54 24 04          	mov    0x4(%esp),%edx
  4029d4:	85 d2                	test   %edx,%edx
  4029d6:	74 14                	je     4029ec <_wattroff+0x1c>
  4029d8:	8b 4a 1c             	mov    0x1c(%edx),%ecx
  4029db:	8b 44 24 08          	mov    0x8(%esp),%eax
  4029df:	66 31 c9             	xor    %cx,%cx
  4029e2:	f7 d0                	not    %eax
  4029e4:	21 c8                	and    %ecx,%eax
  4029e6:	89 42 1c             	mov    %eax,0x1c(%edx)
  4029e9:	31 c0                	xor    %eax,%eax
  4029eb:	c3                   	ret    
  4029ec:	b8 ff ff ff ff       	mov    $0xffffffff,%eax
  4029f1:	c3                   	ret    
  4029f2:	8d b4 26 00 00 00 00 	lea    0x0(%esi,%eiz,1),%esi
  4029f9:	8d bc 27 00 00 00 00 	lea    0x0(%edi,%eiz,1),%edi

00402a00 <_attroff>:
  402a00:	8b 15 38 20 41 00    	mov    0x412038,%edx
  402a06:	85 d2                	test   %edx,%edx
  402a08:	74 14                	je     402a1e <_attroff+0x1e>
  402a0a:	8b 4a 1c             	mov    0x1c(%edx),%ecx
  402a0d:	8b 44 24 04          	mov    0x4(%esp),%eax
  402a11:	66 31 c9             	xor    %cx,%cx
  402a14:	f7 d0                	not    %eax
  402a16:	21 c8                	and    %ecx,%eax
  402a18:	89 42 1c             	mov    %eax,0x1c(%edx)
  402a1b:	31 c0                	xor    %eax,%eax
  402a1d:	c3                   	ret    
  402a1e:	b8 ff ff ff ff       	mov    $0xffffffff,%eax
  402a23:	c3                   	ret    
  402a24:	8d b6 00 00 00 00    	lea    0x0(%esi),%esi
  402a2a:	8d bf 00 00 00 00    	lea    0x0(%edi),%edi

00402a30 <_wattron>:
  402a30:	56                   	push   %esi
  402a31:	53                   	push   %ebx
  402a32:	8b 5c 24 0c          	mov    0xc(%esp),%ebx
  402a36:	8b 4c 24 10          	mov    0x10(%esp),%ecx
  402a3a:	85 db                	test   %ebx,%ebx
  402a3c:	74 3f                	je     402a7d <_wattron+0x4d>
  402a3e:	8b 43 1c             	mov    0x1c(%ebx),%eax
  402a41:	89 c2                	mov    %eax,%edx
  402a43:	81 e2 00 00 00 ff    	and    $0xff000000,%edx
  402a49:	75 15                	jne    402a60 <_wattron+0x30>
  402a4b:	66 31 c9             	xor    %cx,%cx
  402a4e:	09 c8                	or     %ecx,%eax
  402a50:	89 43 1c             	mov    %eax,0x1c(%ebx)
  402a53:	31 c0                	xor    %eax,%eax
  402a55:	5b                   	pop    %ebx
  402a56:	5e                   	pop    %esi
  402a57:	c3                   	ret    
  402a58:	90                   	nop
  402a59:	8d b4 26 00 00 00 00 	lea    0x0(%esi,%eiz,1),%esi
  402a60:	89 ce                	mov    %ecx,%esi
  402a62:	81 e6 00 00 00 ff    	and    $0xff000000,%esi
  402a68:	74 e1                	je     402a4b <_wattron+0x1b>
  402a6a:	31 c2                	xor    %eax,%edx
  402a6c:	66 31 c9             	xor    %cx,%cx
  402a6f:	31 c0                	xor    %eax,%eax
  402a71:	09 f2                	or     %esi,%edx
  402a73:	31 f1                	xor    %esi,%ecx
  402a75:	09 ca                	or     %ecx,%edx
  402a77:	89 53 1c             	mov    %edx,0x1c(%ebx)
  402a7a:	5b                   	pop    %ebx
  402a7b:	5e                   	pop    %esi
  402a7c:	c3                   	ret    
  402a7d:	b8 ff ff ff ff       	mov    $0xffffffff,%eax
  402a82:	eb d1                	jmp    402a55 <_wattron+0x25>
  402a84:	8d b6 00 00 00 00    	lea    0x0(%esi),%esi
  402a8a:	8d bf 00 00 00 00    	lea    0x0(%edi),%edi

00402a90 <_attron>:
  402a90:	83 ec 08             	sub    $0x8,%esp
  402a93:	8b 44 24 0c          	mov    0xc(%esp),%eax
  402a97:	89 44 24 04          	mov    %eax,0x4(%esp)
  402a9b:	a1 38 20 41 00       	mov    0x412038,%eax
  402aa0:	89 04 24             	mov    %eax,(%esp)
  402aa3:	e8 88 ff ff ff       	call   402a30 <_wattron>
  402aa8:	83 c4 08             	add    $0x8,%esp
  402aab:	c3                   	ret    
  402aac:	8d 74 26 00          	lea    0x0(%esi,%eiz,1),%esi

00402ab0 <_wattrset>:
  402ab0:	8b 54 24 04          	mov    0x4(%esp),%edx
  402ab4:	85 d2                	test   %edx,%edx
  402ab6:	74 0d                	je     402ac5 <_wattrset+0x15>
  402ab8:	8b 44 24 08          	mov    0x8(%esp),%eax
  402abc:	66 31 c0             	xor    %ax,%ax
  402abf:	89 42 1c             	mov    %eax,0x1c(%edx)
  402ac2:	31 c0                	xor    %eax,%eax
  402ac4:	c3                   	ret    
  402ac5:	b8 ff ff ff ff       	mov    $0xffffffff,%eax
  402aca:	c3                   	ret    
  402acb:	90                   	nop
  402acc:	8d 74 26 00          	lea    0x0(%esi,%eiz,1),%esi

00402ad0 <_attrset>:
  402ad0:	8b 15 38 20 41 00    	mov    0x412038,%edx
  402ad6:	85 d2                	test   %edx,%edx
  402ad8:	74 0d                	je     402ae7 <_attrset+0x17>
  402ada:	8b 44 24 04          	mov    0x4(%esp),%eax
  402ade:	66 31 c0             	xor    %ax,%ax
  402ae1:	89 42 1c             	mov    %eax,0x1c(%edx)
  402ae4:	31 c0                	xor    %eax,%eax
  402ae6:	c3                   	ret    
  402ae7:	b8 ff ff ff ff       	mov    $0xffffffff,%eax
  402aec:	c3                   	ret    
  402aed:	8d 76 00             	lea    0x0(%esi),%esi

00402af0 <_standend>:
  402af0:	a1 38 20 41 00       	mov    0x412038,%eax
  402af5:	85 c0                	test   %eax,%eax
  402af7:	74 0a                	je     402b03 <_standend+0x13>
  402af9:	c7 40 1c 00 00 00 00 	movl   $0x0,0x1c(%eax)
  402b00:	31 c0                	xor    %eax,%eax
  402b02:	c3                   	ret    
  402b03:	b8 ff ff ff ff       	mov    $0xffffffff,%eax
  402b08:	c3                   	ret    
  402b09:	8d b4 26 00 00 00 00 	lea    0x0(%esi,%eiz,1),%esi

00402b10 <_standout>:
  402b10:	a1 38 20 41 00       	mov    0x412038,%eax
  402b15:	85 c0                	test   %eax,%eax
  402b17:	74 0a                	je     402b23 <_standout+0x13>
  402b19:	c7 40 1c 00 00 a0 00 	movl   $0xa00000,0x1c(%eax)
  402b20:	31 c0                	xor    %eax,%eax
  402b22:	c3                   	ret    
  402b23:	b8 ff ff ff ff       	mov    $0xffffffff,%eax
  402b28:	c3                   	ret    
  402b29:	8d b4 26 00 00 00 00 	lea    0x0(%esi,%eiz,1),%esi

00402b30 <_wstandend>:
  402b30:	8b 44 24 04          	mov    0x4(%esp),%eax
  402b34:	85 c0                	test   %eax,%eax
  402b36:	74 0a                	je     402b42 <_wstandend+0x12>
  402b38:	c7 40 1c 00 00 00 00 	movl   $0x0,0x1c(%eax)
  402b3f:	31 c0                	xor    %eax,%eax
  402b41:	c3                   	ret    
  402b42:	b8 ff ff ff ff       	mov    $0xffffffff,%eax
  402b47:	c3                   	ret    
  402b48:	90                   	nop
  402b49:	8d b4 26 00 00 00 00 	lea    0x0(%esi,%eiz,1),%esi

00402b50 <_wstandout>:
  402b50:	8b 44 24 04          	mov    0x4(%esp),%eax
  402b54:	85 c0                	test   %eax,%eax
  402b56:	74 0a                	je     402b62 <_wstandout+0x12>
  402b58:	c7 40 1c 00 00 a0 00 	movl   $0xa00000,0x1c(%eax)
  402b5f:	31 c0                	xor    %eax,%eax
  402b61:	c3                   	ret    
  402b62:	b8 ff ff ff ff       	mov    $0xffffffff,%eax
  402b67:	c3                   	ret    
  402b68:	90                   	nop
  402b69:	8d b4 26 00 00 00 00 	lea    0x0(%esi,%eiz,1),%esi

00402b70 <_getattrs>:
  402b70:	8b 44 24 04          	mov    0x4(%esp),%eax
  402b74:	85 c0                	test   %eax,%eax
  402b76:	74 08                	je     402b80 <_getattrs+0x10>
  402b78:	8b 40 1c             	mov    0x1c(%eax),%eax
  402b7b:	c3                   	ret    
  402b7c:	8d 74 26 00          	lea    0x0(%esi,%eiz,1),%esi
  402b80:	31 c0                	xor    %eax,%eax
  402b82:	c3                   	ret    
  402b83:	8d b6 00 00 00 00    	lea    0x0(%esi),%esi
  402b89:	8d bc 27 00 00 00 00 	lea    0x0(%edi,%eiz,1),%edi

00402b90 <_wcolor_set>:
  402b90:	8b 4c 24 04          	mov    0x4(%esp),%ecx
  402b94:	8b 44 24 08          	mov    0x8(%esp),%eax
  402b98:	85 c9                	test   %ecx,%ecx
  402b9a:	74 14                	je     402bb0 <_wcolor_set+0x20>
  402b9c:	8b 51 1c             	mov    0x1c(%ecx),%edx
  402b9f:	c1 e0 18             	shl    $0x18,%eax
  402ba2:	81 e2 ff ff ff 00    	and    $0xffffff,%edx
  402ba8:	09 d0                	or     %edx,%eax
  402baa:	89 41 1c             	mov    %eax,0x1c(%ecx)
  402bad:	31 c0                	xor    %eax,%eax
  402baf:	c3                   	ret    
  402bb0:	b8 ff ff ff ff       	mov    $0xffffffff,%eax
  402bb5:	c3                   	ret    
  402bb6:	8d 76 00             	lea    0x0(%esi),%esi
  402bb9:	8d bc 27 00 00 00 00 	lea    0x0(%edi,%eiz,1),%edi

00402bc0 <_color_set>:
  402bc0:	8b 0d 38 20 41 00    	mov    0x412038,%ecx
  402bc6:	8b 44 24 04          	mov    0x4(%esp),%eax
  402bca:	85 c9                	test   %ecx,%ecx
  402bcc:	74 14                	je     402be2 <_color_set+0x22>
  402bce:	8b 51 1c             	mov    0x1c(%ecx),%edx
  402bd1:	c1 e0 18             	shl    $0x18,%eax
  402bd4:	81 e2 ff ff ff 00    	and    $0xffffff,%edx
  402bda:	09 d0                	or     %edx,%eax
  402bdc:	89 41 1c             	mov    %eax,0x1c(%ecx)
  402bdf:	31 c0                	xor    %eax,%eax
  402be1:	c3                   	ret    
  402be2:	b8 ff ff ff ff       	mov    $0xffffffff,%eax
  402be7:	c3                   	ret    
  402be8:	90                   	nop
  402be9:	8d b4 26 00 00 00 00 	lea    0x0(%esi,%eiz,1),%esi

00402bf0 <_wattr_get>:
  402bf0:	53                   	push   %ebx
  402bf1:	8b 44 24 08          	mov    0x8(%esp),%eax
  402bf5:	8b 5c 24 0c          	mov    0xc(%esp),%ebx
  402bf9:	8b 4c 24 10          	mov    0x10(%esp),%ecx
  402bfd:	85 c0                	test   %eax,%eax
  402bff:	74 23                	je     402c24 <_wattr_get+0x34>
  402c01:	85 db                	test   %ebx,%ebx
  402c03:	74 0b                	je     402c10 <_wattr_get+0x20>
  402c05:	8b 50 1c             	mov    0x1c(%eax),%edx
  402c08:	81 e2 00 00 ff 00    	and    $0xff0000,%edx
  402c0e:	89 13                	mov    %edx,(%ebx)
  402c10:	85 c9                	test   %ecx,%ecx
  402c12:	74 0c                	je     402c20 <_wattr_get+0x30>
  402c14:	0f b6 40 1f          	movzbl 0x1f(%eax),%eax
  402c18:	66 89 01             	mov    %ax,(%ecx)
  402c1b:	31 c0                	xor    %eax,%eax
  402c1d:	5b                   	pop    %ebx
  402c1e:	c3                   	ret    
  402c1f:	90                   	nop
  402c20:	31 c0                	xor    %eax,%eax
  402c22:	5b                   	pop    %ebx
  402c23:	c3                   	ret    
  402c24:	b8 ff ff ff ff       	mov    $0xffffffff,%eax
  402c29:	5b                   	pop    %ebx
  402c2a:	c3                   	ret    
  402c2b:	90                   	nop
  402c2c:	8d 74 26 00          	lea    0x0(%esi,%eiz,1),%esi

00402c30 <_attr_get>:
  402c30:	a1 38 20 41 00       	mov    0x412038,%eax
  402c35:	53                   	push   %ebx
  402c36:	8b 5c 24 08          	mov    0x8(%esp),%ebx
  402c3a:	8b 4c 24 0c          	mov    0xc(%esp),%ecx
  402c3e:	85 c0                	test   %eax,%eax
  402c40:	74 22                	je     402c64 <_attr_get+0x34>
  402c42:	85 db                	test   %ebx,%ebx
  402c44:	74 0b                	je     402c51 <_attr_get+0x21>
  402c46:	8b 50 1c             	mov    0x1c(%eax),%edx
  402c49:	81 e2 00 00 ff 00    	and    $0xff0000,%edx
  402c4f:	89 13                	mov    %edx,(%ebx)
  402c51:	85 c9                	test   %ecx,%ecx
  402c53:	74 0b                	je     402c60 <_attr_get+0x30>
  402c55:	0f b6 40 1f          	movzbl 0x1f(%eax),%eax
  402c59:	66 89 01             	mov    %ax,(%ecx)
  402c5c:	31 c0                	xor    %eax,%eax
  402c5e:	5b                   	pop    %ebx
  402c5f:	c3                   	ret    
  402c60:	31 c0                	xor    %eax,%eax
  402c62:	5b                   	pop    %ebx
  402c63:	c3                   	ret    
  402c64:	b8 ff ff ff ff       	mov    $0xffffffff,%eax
  402c69:	5b                   	pop    %ebx
  402c6a:	c3                   	ret    
  402c6b:	90                   	nop
  402c6c:	8d 74 26 00          	lea    0x0(%esi,%eiz,1),%esi

00402c70 <_wattr_off>:
  402c70:	8b 54 24 04          	mov    0x4(%esp),%edx
  402c74:	85 d2                	test   %edx,%edx
  402c76:	74 14                	je     402c8c <_wattr_off+0x1c>
  402c78:	8b 4a 1c             	mov    0x1c(%edx),%ecx
  402c7b:	8b 44 24 08          	mov    0x8(%esp),%eax
  402c7f:	66 31 c9             	xor    %cx,%cx
  402c82:	f7 d0                	not    %eax
  402c84:	21 c8                	and    %ecx,%eax
  402c86:	89 42 1c             	mov    %eax,0x1c(%edx)
  402c89:	31 c0                	xor    %eax,%eax
  402c8b:	c3                   	ret    
  402c8c:	b8 ff ff ff ff       	mov    $0xffffffff,%eax
  402c91:	c3                   	ret    
  402c92:	8d b4 26 00 00 00 00 	lea    0x0(%esi,%eiz,1),%esi
  402c99:	8d bc 27 00 00 00 00 	lea    0x0(%edi,%eiz,1),%edi

00402ca0 <_attr_off>:
  402ca0:	8b 15 38 20 41 00    	mov    0x412038,%edx
  402ca6:	85 d2                	test   %edx,%edx
  402ca8:	74 14                	je     402cbe <_attr_off+0x1e>
  402caa:	8b 4a 1c             	mov    0x1c(%edx),%ecx
  402cad:	8b 44 24 04          	mov    0x4(%esp),%eax
  402cb1:	66 31 c9             	xor    %cx,%cx
  402cb4:	f7 d0                	not    %eax
  402cb6:	21 c8                	and    %ecx,%eax
  402cb8:	89 42 1c             	mov    %eax,0x1c(%edx)
  402cbb:	31 c0                	xor    %eax,%eax
  402cbd:	c3                   	ret    
  402cbe:	b8 ff ff ff ff       	mov    $0xffffffff,%eax
  402cc3:	c3                   	ret    
  402cc4:	8d b6 00 00 00 00    	lea    0x0(%esi),%esi
  402cca:	8d bf 00 00 00 00    	lea    0x0(%edi),%edi

00402cd0 <_wattr_on>:
  402cd0:	e9 5b fd ff ff       	jmp    402a30 <_wattron>
  402cd5:	8d 74 26 00          	lea    0x0(%esi,%eiz,1),%esi
  402cd9:	8d bc 27 00 00 00 00 	lea    0x0(%edi,%eiz,1),%edi

00402ce0 <_attr_on>:
  402ce0:	8b 44 24 04          	mov    0x4(%esp),%eax
  402ce4:	89 44 24 08          	mov    %eax,0x8(%esp)
  402ce8:	a1 38 20 41 00       	mov    0x412038,%eax
  402ced:	89 44 24 04          	mov    %eax,0x4(%esp)
  402cf1:	e9 3a fd ff ff       	jmp    402a30 <_wattron>
  402cf6:	8d 76 00             	lea    0x0(%esi),%esi
  402cf9:	8d bc 27 00 00 00 00 	lea    0x0(%edi,%eiz,1),%edi

00402d00 <_wattr_set>:
  402d00:	8b 4c 24 04          	mov    0x4(%esp),%ecx
  402d04:	8b 44 24 0c          	mov    0xc(%esp),%eax
  402d08:	85 c9                	test   %ecx,%ecx
  402d0a:	74 15                	je     402d21 <_wattr_set+0x21>
  402d0c:	8b 54 24 08          	mov    0x8(%esp),%edx
  402d10:	c1 e0 18             	shl    $0x18,%eax
  402d13:	81 e2 00 00 ff 00    	and    $0xff0000,%edx
  402d19:	09 d0                	or     %edx,%eax
  402d1b:	89 41 1c             	mov    %eax,0x1c(%ecx)
  402d1e:	31 c0                	xor    %eax,%eax
  402d20:	c3                   	ret    
  402d21:	b8 ff ff ff ff       	mov    $0xffffffff,%eax
  402d26:	c3                   	ret    
  402d27:	89 f6                	mov    %esi,%esi
  402d29:	8d bc 27 00 00 00 00 	lea    0x0(%edi,%eiz,1),%edi

00402d30 <_attr_set>:
  402d30:	8b 0d 38 20 41 00    	mov    0x412038,%ecx
  402d36:	8b 44 24 08          	mov    0x8(%esp),%eax
  402d3a:	85 c9                	test   %ecx,%ecx
  402d3c:	74 15                	je     402d53 <_attr_set+0x23>
  402d3e:	8b 54 24 04          	mov    0x4(%esp),%edx
  402d42:	c1 e0 18             	shl    $0x18,%eax
  402d45:	81 e2 00 00 ff 00    	and    $0xff0000,%edx
  402d4b:	09 d0                	or     %edx,%eax
  402d4d:	89 41 1c             	mov    %eax,0x1c(%ecx)
  402d50:	31 c0                	xor    %eax,%eax
  402d52:	c3                   	ret    
  402d53:	b8 ff ff ff ff       	mov    $0xffffffff,%eax
  402d58:	c3                   	ret    
  402d59:	8d b4 26 00 00 00 00 	lea    0x0(%esi,%eiz,1),%esi

00402d60 <_wchgat>:
  402d60:	55                   	push   %ebp
  402d61:	57                   	push   %edi
  402d62:	56                   	push   %esi
  402d63:	53                   	push   %ebx
  402d64:	83 ec 2c             	sub    $0x2c,%esp
  402d67:	8b 7c 24 40          	mov    0x40(%esp),%edi
  402d6b:	8b 5c 24 44          	mov    0x44(%esp),%ebx
  402d6f:	8b 4c 24 4c          	mov    0x4c(%esp),%ecx
  402d73:	85 ff                	test   %edi,%edi
  402d75:	0f 84 a0 00 00 00    	je     402e1b <_wchgat+0xbb>
  402d7b:	8b 44 24 48          	mov    0x48(%esp),%eax
  402d7f:	c1 e1 18             	shl    $0x18,%ecx
  402d82:	8b 6f 04             	mov    0x4(%edi),%ebp
  402d85:	66 31 c0             	xor    %ax,%ax
  402d88:	09 c1                	or     %eax,%ecx
  402d8a:	85 db                	test   %ebx,%ebx
  402d8c:	0f 88 81 00 00 00    	js     402e13 <_wchgat+0xb3>
  402d92:	8b 47 0c             	mov    0xc(%edi),%eax
  402d95:	01 eb                	add    %ebp,%ebx
  402d97:	39 c3                	cmp    %eax,%ebx
  402d99:	0f 4f d8             	cmovg  %eax,%ebx
  402d9c:	83 eb 01             	sub    $0x1,%ebx
  402d9f:	8b 07                	mov    (%edi),%eax
  402da1:	8b 57 2c             	mov    0x2c(%edi),%edx
  402da4:	39 eb                	cmp    %ebp,%ebx
  402da6:	8b 14 82             	mov    (%edx,%eax,4),%edx
  402da9:	8d 34 85 00 00 00 00 	lea    0x0(,%eax,4),%esi
  402db0:	89 74 24 1c          	mov    %esi,0x1c(%esp)
  402db4:	8d 04 aa             	lea    (%edx,%ebp,4),%eax
  402db7:	8d 74 9a 04          	lea    0x4(%edx,%ebx,4),%esi
  402dbb:	7c 13                	jl     402dd0 <_wchgat+0x70>
  402dbd:	8d 76 00             	lea    0x0(%esi),%esi
  402dc0:	89 ca                	mov    %ecx,%edx
  402dc2:	83 c0 04             	add    $0x4,%eax
  402dc5:	c1 ea 10             	shr    $0x10,%edx
  402dc8:	66 89 50 fe          	mov    %dx,-0x2(%eax)
  402dcc:	39 f0                	cmp    %esi,%eax
  402dce:	75 f0                	jne    402dc0 <_wchgat+0x60>
  402dd0:	8b 54 24 1c          	mov    0x1c(%esp),%edx
  402dd4:	03 57 30             	add    0x30(%edi),%edx
  402dd7:	8b 02                	mov    (%edx),%eax
  402dd9:	39 c5                	cmp    %eax,%ebp
  402ddb:	7c 25                	jl     402e02 <_wchgat+0xa2>
  402ddd:	83 f8 ff             	cmp    $0xffffffff,%eax
  402de0:	74 20                	je     402e02 <_wchgat+0xa2>
  402de2:	8b 44 24 1c          	mov    0x1c(%esp),%eax
  402de6:	03 47 34             	add    0x34(%edi),%eax
  402de9:	3b 18                	cmp    (%eax),%ebx
  402deb:	7f 22                	jg     402e0f <_wchgat+0xaf>
  402ded:	8d 76 00             	lea    0x0(%esi),%esi
  402df0:	89 3c 24             	mov    %edi,(%esp)
  402df3:	e8 98 3f 00 00       	call   406d90 <_PDC_sync>
  402df8:	31 c0                	xor    %eax,%eax
  402dfa:	83 c4 2c             	add    $0x2c,%esp
  402dfd:	5b                   	pop    %ebx
  402dfe:	5e                   	pop    %esi
  402dff:	5f                   	pop    %edi
  402e00:	5d                   	pop    %ebp
  402e01:	c3                   	ret    
  402e02:	8b 44 24 1c          	mov    0x1c(%esp),%eax
  402e06:	03 47 34             	add    0x34(%edi),%eax
  402e09:	89 2a                	mov    %ebp,(%edx)
  402e0b:	3b 18                	cmp    (%eax),%ebx
  402e0d:	7e e1                	jle    402df0 <_wchgat+0x90>
  402e0f:	89 18                	mov    %ebx,(%eax)
  402e11:	eb dd                	jmp    402df0 <_wchgat+0x90>
  402e13:	8b 47 0c             	mov    0xc(%edi),%eax
  402e16:	8d 58 ff             	lea    -0x1(%eax),%ebx
  402e19:	eb 84                	jmp    402d9f <_wchgat+0x3f>
  402e1b:	b8 ff ff ff ff       	mov    $0xffffffff,%eax
  402e20:	eb d8                	jmp    402dfa <_wchgat+0x9a>
  402e22:	8d b4 26 00 00 00 00 	lea    0x0(%esi,%eiz,1),%esi
  402e29:	8d bc 27 00 00 00 00 	lea    0x0(%edi,%eiz,1),%edi

00402e30 <_chgat>:
  402e30:	83 ec 2c             	sub    $0x2c,%esp
  402e33:	8b 44 24 3c          	mov    0x3c(%esp),%eax
  402e37:	89 44 24 10          	mov    %eax,0x10(%esp)
  402e3b:	0f bf 44 24 38       	movswl 0x38(%esp),%eax
  402e40:	89 44 24 0c          	mov    %eax,0xc(%esp)
  402e44:	8b 44 24 34          	mov    0x34(%esp),%eax
  402e48:	89 44 24 08          	mov    %eax,0x8(%esp)
  402e4c:	8b 44 24 30          	mov    0x30(%esp),%eax
  402e50:	89 44 24 04          	mov    %eax,0x4(%esp)
  402e54:	a1 38 20 41 00       	mov    0x412038,%eax
  402e59:	89 04 24             	mov    %eax,(%esp)
  402e5c:	e8 ff fe ff ff       	call   402d60 <_wchgat>
  402e61:	83 c4 2c             	add    $0x2c,%esp
  402e64:	c3                   	ret    
  402e65:	8d 74 26 00          	lea    0x0(%esi,%eiz,1),%esi
  402e69:	8d bc 27 00 00 00 00 	lea    0x0(%edi,%eiz,1),%edi

00402e70 <_mvchgat>:
  402e70:	55                   	push   %ebp
  402e71:	57                   	push   %edi
  402e72:	56                   	push   %esi
  402e73:	53                   	push   %ebx
  402e74:	83 ec 1c             	sub    $0x1c,%esp
  402e77:	8b 44 24 34          	mov    0x34(%esp),%eax
  402e7b:	8b 74 24 38          	mov    0x38(%esp),%esi
  402e7f:	8b 7c 24 3c          	mov    0x3c(%esp),%edi
  402e83:	8b 5c 24 40          	mov    0x40(%esp),%ebx
  402e87:	8b 6c 24 44          	mov    0x44(%esp),%ebp
  402e8b:	89 44 24 04          	mov    %eax,0x4(%esp)
  402e8f:	8b 44 24 30          	mov    0x30(%esp),%eax
  402e93:	89 04 24             	mov    %eax,(%esp)
  402e96:	e8 c5 24 00 00       	call   405360 <_move>
  402e9b:	83 f8 ff             	cmp    $0xffffffff,%eax
  402e9e:	74 30                	je     402ed0 <_mvchgat+0x60>
  402ea0:	a1 38 20 41 00       	mov    0x412038,%eax
  402ea5:	0f bf db             	movswl %bx,%ebx
  402ea8:	89 6c 24 40          	mov    %ebp,0x40(%esp)
  402eac:	89 5c 24 3c          	mov    %ebx,0x3c(%esp)
  402eb0:	89 7c 24 38          	mov    %edi,0x38(%esp)
  402eb4:	89 74 24 34          	mov    %esi,0x34(%esp)
  402eb8:	89 44 24 30          	mov    %eax,0x30(%esp)
  402ebc:	83 c4 1c             	add    $0x1c,%esp
  402ebf:	5b                   	pop    %ebx
  402ec0:	5e                   	pop    %esi
  402ec1:	5f                   	pop    %edi
  402ec2:	5d                   	pop    %ebp
  402ec3:	e9 98 fe ff ff       	jmp    402d60 <_wchgat>
  402ec8:	90                   	nop
  402ec9:	8d b4 26 00 00 00 00 	lea    0x0(%esi,%eiz,1),%esi
  402ed0:	83 c4 1c             	add    $0x1c,%esp
  402ed3:	b8 ff ff ff ff       	mov    $0xffffffff,%eax
  402ed8:	5b                   	pop    %ebx
  402ed9:	5e                   	pop    %esi
  402eda:	5f                   	pop    %edi
  402edb:	5d                   	pop    %ebp
  402edc:	c3                   	ret    
  402edd:	8d 76 00             	lea    0x0(%esi),%esi

00402ee0 <_mvwchgat>:
  402ee0:	55                   	push   %ebp
  402ee1:	57                   	push   %edi
  402ee2:	56                   	push   %esi
  402ee3:	53                   	push   %ebx
  402ee4:	83 ec 2c             	sub    $0x2c,%esp
  402ee7:	8b 44 24 4c          	mov    0x4c(%esp),%eax
  402eeb:	8b 74 24 40          	mov    0x40(%esp),%esi
  402eef:	8b 7c 24 50          	mov    0x50(%esp),%edi
  402ef3:	8b 5c 24 54          	mov    0x54(%esp),%ebx
  402ef7:	8b 6c 24 58          	mov    0x58(%esp),%ebp
  402efb:	89 44 24 1c          	mov    %eax,0x1c(%esp)
  402eff:	8b 44 24 48          	mov    0x48(%esp),%eax
  402f03:	89 34 24             	mov    %esi,(%esp)
  402f06:	89 44 24 08          	mov    %eax,0x8(%esp)
  402f0a:	8b 44 24 44          	mov    0x44(%esp),%eax
  402f0e:	89 44 24 04          	mov    %eax,0x4(%esp)
  402f12:	e8 09 25 00 00       	call   405420 <_wmove>
  402f17:	83 f8 ff             	cmp    $0xffffffff,%eax
  402f1a:	74 27                	je     402f43 <_mvwchgat+0x63>
  402f1c:	8b 44 24 1c          	mov    0x1c(%esp),%eax
  402f20:	0f bf db             	movswl %bx,%ebx
  402f23:	89 6c 24 50          	mov    %ebp,0x50(%esp)
  402f27:	89 5c 24 4c          	mov    %ebx,0x4c(%esp)
  402f2b:	89 7c 24 48          	mov    %edi,0x48(%esp)
  402f2f:	89 74 24 40          	mov    %esi,0x40(%esp)
  402f33:	89 44 24 44          	mov    %eax,0x44(%esp)
  402f37:	83 c4 2c             	add    $0x2c,%esp
  402f3a:	5b                   	pop    %ebx
  402f3b:	5e                   	pop    %esi
  402f3c:	5f                   	pop    %edi
  402f3d:	5d                   	pop    %ebp
  402f3e:	e9 1d fe ff ff       	jmp    402d60 <_wchgat>
  402f43:	83 c4 2c             	add    $0x2c,%esp
  402f46:	b8 ff ff ff ff       	mov    $0xffffffff,%eax
  402f4b:	5b                   	pop    %ebx
  402f4c:	5e                   	pop    %esi
  402f4d:	5f                   	pop    %edi
  402f4e:	5d                   	pop    %ebp
  402f4f:	c3                   	ret    

00402f50 <_underend>:
  402f50:	a1 38 20 41 00       	mov    0x412038,%eax
  402f55:	85 c0                	test   %eax,%eax
  402f57:	74 0a                	je     402f63 <_underend+0x13>
  402f59:	81 60 1c 00 00 ef ff 	andl   $0xffef0000,0x1c(%eax)
  402f60:	31 c0                	xor    %eax,%eax
  402f62:	c3                   	ret    
  402f63:	b8 ff ff ff ff       	mov    $0xffffffff,%eax
  402f68:	c3                   	ret    
  402f69:	8d b4 26 00 00 00 00 	lea    0x0(%esi,%eiz,1),%esi

00402f70 <_wunderend>:
  402f70:	8b 44 24 04          	mov    0x4(%esp),%eax
  402f74:	85 c0                	test   %eax,%eax
  402f76:	74 0a                	je     402f82 <_wunderend+0x12>
  402f78:	81 60 1c 00 00 ef ff 	andl   $0xffef0000,0x1c(%eax)
  402f7f:	31 c0                	xor    %eax,%eax
  402f81:	c3                   	ret    
  402f82:	b8 ff ff ff ff       	mov    $0xffffffff,%eax
  402f87:	c3                   	ret    
  402f88:	90                   	nop
  402f89:	8d b4 26 00 00 00 00 	lea    0x0(%esi,%eiz,1),%esi

00402f90 <_underscore>:
  402f90:	83 ec 08             	sub    $0x8,%esp
  402f93:	a1 38 20 41 00       	mov    0x412038,%eax
  402f98:	c7 44 24 04 00 00 10 	movl   $0x100000,0x4(%esp)
  402f9f:	00 
  402fa0:	89 04 24             	mov    %eax,(%esp)
  402fa3:	e8 88 fa ff ff       	call   402a30 <_wattron>
  402fa8:	83 c4 08             	add    $0x8,%esp
  402fab:	c3                   	ret    
  402fac:	8d 74 26 00          	lea    0x0(%esi,%eiz,1),%esi

00402fb0 <_wunderscore>:
  402fb0:	83 ec 08             	sub    $0x8,%esp
  402fb3:	8b 44 24 0c          	mov    0xc(%esp),%eax
  402fb7:	c7 44 24 04 00 00 10 	movl   $0x100000,0x4(%esp)
  402fbe:	00 
  402fbf:	89 04 24             	mov    %eax,(%esp)
  402fc2:	e8 69 fa ff ff       	call   402a30 <_wattron>
  402fc7:	83 c4 08             	add    $0x8,%esp
  402fca:	c3                   	ret    
  402fcb:	90                   	nop
  402fcc:	90                   	nop
  402fcd:	90                   	nop
  402fce:	90                   	nop
  402fcf:	90                   	nop

00402fd0 <_wclrtoeol>:
  402fd0:	55                   	push   %ebp
  402fd1:	57                   	push   %edi
  402fd2:	56                   	push   %esi
  402fd3:	53                   	push   %ebx
  402fd4:	83 ec 2c             	sub    $0x2c,%esp
  402fd7:	8b 74 24 40          	mov    0x40(%esp),%esi
  402fdb:	85 f6                	test   %esi,%esi
  402fdd:	74 7c                	je     40305b <_wclrtoeol+0x8b>
  402fdf:	8b 2e                	mov    (%esi),%ebp
  402fe1:	8b 7e 04             	mov    0x4(%esi),%edi
  402fe4:	8b 5e 20             	mov    0x20(%esi),%ebx
  402fe7:	8d 04 ad 00 00 00 00 	lea    0x0(,%ebp,4),%eax
  402fee:	89 44 24 1c          	mov    %eax,0x1c(%esp)
  402ff2:	8b 46 2c             	mov    0x2c(%esi),%eax
  402ff5:	8b 04 a8             	mov    (%eax,%ebp,4),%eax
  402ff8:	8d 0c b8             	lea    (%eax,%edi,4),%ecx
  402ffb:	8b 46 0c             	mov    0xc(%esi),%eax
  402ffe:	89 c2                	mov    %eax,%edx
  403000:	89 44 24 18          	mov    %eax,0x18(%esp)
  403004:	31 c0                	xor    %eax,%eax
  403006:	29 fa                	sub    %edi,%edx
  403008:	3b 7c 24 18          	cmp    0x18(%esp),%edi
  40300c:	7d 0c                	jge    40301a <_wclrtoeol+0x4a>
  40300e:	66 90                	xchg   %ax,%ax
  403010:	89 1c 81             	mov    %ebx,(%ecx,%eax,4)
  403013:	83 c0 01             	add    $0x1,%eax
  403016:	39 d0                	cmp    %edx,%eax
  403018:	75 f6                	jne    403010 <_wclrtoeol+0x40>
  40301a:	8b 44 24 1c          	mov    0x1c(%esp),%eax
  40301e:	03 46 30             	add    0x30(%esi),%eax
  403021:	8b 10                	mov    (%eax),%edx
  403023:	39 d7                	cmp    %edx,%edi
  403025:	7c 29                	jl     403050 <_wclrtoeol+0x80>
  403027:	83 fa ff             	cmp    $0xffffffff,%edx
  40302a:	74 24                	je     403050 <_wclrtoeol+0x80>
  40302c:	8b 44 24 18          	mov    0x18(%esp),%eax
  403030:	8b 56 34             	mov    0x34(%esi),%edx
  403033:	83 e8 01             	sub    $0x1,%eax
  403036:	89 04 aa             	mov    %eax,(%edx,%ebp,4)
  403039:	89 34 24             	mov    %esi,(%esp)
  40303c:	e8 4f 3d 00 00       	call   406d90 <_PDC_sync>
  403041:	31 c0                	xor    %eax,%eax
  403043:	83 c4 2c             	add    $0x2c,%esp
  403046:	5b                   	pop    %ebx
  403047:	5e                   	pop    %esi
  403048:	5f                   	pop    %edi
  403049:	5d                   	pop    %ebp
  40304a:	c3                   	ret    
  40304b:	90                   	nop
  40304c:	8d 74 26 00          	lea    0x0(%esi,%eiz,1),%esi
  403050:	89 38                	mov    %edi,(%eax)
  403052:	8b 46 0c             	mov    0xc(%esi),%eax
  403055:	89 44 24 18          	mov    %eax,0x18(%esp)
  403059:	eb d1                	jmp    40302c <_wclrtoeol+0x5c>
  40305b:	b8 ff ff ff ff       	mov    $0xffffffff,%eax
  403060:	eb e1                	jmp    403043 <_wclrtoeol+0x73>
  403062:	8d b4 26 00 00 00 00 	lea    0x0(%esi,%eiz,1),%esi
  403069:	8d bc 27 00 00 00 00 	lea    0x0(%edi,%eiz,1),%edi

00403070 <_clrtoeol>:
  403070:	83 ec 1c             	sub    $0x1c,%esp
  403073:	a1 38 20 41 00       	mov    0x412038,%eax
  403078:	89 04 24             	mov    %eax,(%esp)
  40307b:	e8 50 ff ff ff       	call   402fd0 <_wclrtoeol>
  403080:	83 c4 1c             	add    $0x1c,%esp
  403083:	c3                   	ret    
  403084:	8d b6 00 00 00 00    	lea    0x0(%esi),%esi
  40308a:	8d bf 00 00 00 00    	lea    0x0(%edi),%edi

00403090 <_wclrtobot>:
  403090:	57                   	push   %edi
  403091:	56                   	push   %esi
  403092:	53                   	push   %ebx
  403093:	83 ec 10             	sub    $0x10,%esp
  403096:	8b 5c 24 20          	mov    0x20(%esp),%ebx
  40309a:	85 db                	test   %ebx,%ebx
  40309c:	74 48                	je     4030e6 <_wclrtobot+0x56>
  40309e:	8b 33                	mov    (%ebx),%esi
  4030a0:	8b 7b 04             	mov    0x4(%ebx),%edi
  4030a3:	8d 46 01             	lea    0x1(%esi),%eax
  4030a6:	3b 43 08             	cmp    0x8(%ebx),%eax
  4030a9:	7d 22                	jge    4030cd <_wclrtobot+0x3d>
  4030ab:	c7 43 04 00 00 00 00 	movl   $0x0,0x4(%ebx)
  4030b2:	89 03                	mov    %eax,(%ebx)
  4030b4:	89 1c 24             	mov    %ebx,(%esp)
  4030b7:	e8 14 ff ff ff       	call   402fd0 <_wclrtoeol>
  4030bc:	8b 03                	mov    (%ebx),%eax
  4030be:	83 c0 01             	add    $0x1,%eax
  4030c1:	39 43 08             	cmp    %eax,0x8(%ebx)
  4030c4:	89 03                	mov    %eax,(%ebx)
  4030c6:	7f ec                	jg     4030b4 <_wclrtobot+0x24>
  4030c8:	89 33                	mov    %esi,(%ebx)
  4030ca:	89 7b 04             	mov    %edi,0x4(%ebx)
  4030cd:	89 1c 24             	mov    %ebx,(%esp)
  4030d0:	e8 fb fe ff ff       	call   402fd0 <_wclrtoeol>
  4030d5:	89 1c 24             	mov    %ebx,(%esp)
  4030d8:	e8 b3 3c 00 00       	call   406d90 <_PDC_sync>
  4030dd:	31 c0                	xor    %eax,%eax
  4030df:	83 c4 10             	add    $0x10,%esp
  4030e2:	5b                   	pop    %ebx
  4030e3:	5e                   	pop    %esi
  4030e4:	5f                   	pop    %edi
  4030e5:	c3                   	ret    
  4030e6:	b8 ff ff ff ff       	mov    $0xffffffff,%eax
  4030eb:	eb f2                	jmp    4030df <_wclrtobot+0x4f>
  4030ed:	8d 76 00             	lea    0x0(%esi),%esi

004030f0 <_clrtobot>:
  4030f0:	83 ec 1c             	sub    $0x1c,%esp
  4030f3:	a1 38 20 41 00       	mov    0x412038,%eax
  4030f8:	89 04 24             	mov    %eax,(%esp)
  4030fb:	e8 90 ff ff ff       	call   403090 <_wclrtobot>
  403100:	83 c4 1c             	add    $0x1c,%esp
  403103:	c3                   	ret    
  403104:	8d b6 00 00 00 00    	lea    0x0(%esi),%esi
  40310a:	8d bf 00 00 00 00    	lea    0x0(%edi),%edi

00403110 <_werase>:
  403110:	53                   	push   %ebx
  403111:	83 ec 18             	sub    $0x18,%esp
  403114:	8b 5c 24 20          	mov    0x20(%esp),%ebx
  403118:	c7 44 24 08 00 00 00 	movl   $0x0,0x8(%esp)
  40311f:	00 
  403120:	c7 44 24 04 00 00 00 	movl   $0x0,0x4(%esp)
  403127:	00 
  403128:	89 1c 24             	mov    %ebx,(%esp)
  40312b:	e8 f0 22 00 00       	call   405420 <_wmove>
  403130:	83 f8 ff             	cmp    $0xffffffff,%eax
  403133:	74 0d                	je     403142 <_werase+0x32>
  403135:	89 5c 24 20          	mov    %ebx,0x20(%esp)
  403139:	83 c4 18             	add    $0x18,%esp
  40313c:	5b                   	pop    %ebx
  40313d:	e9 4e ff ff ff       	jmp    403090 <_wclrtobot>
  403142:	83 c4 18             	add    $0x18,%esp
  403145:	b8 ff ff ff ff       	mov    $0xffffffff,%eax
  40314a:	5b                   	pop    %ebx
  40314b:	c3                   	ret    
  40314c:	8d 74 26 00          	lea    0x0(%esi,%eiz,1),%esi

00403150 <_erase>:
  403150:	83 ec 1c             	sub    $0x1c,%esp
  403153:	a1 38 20 41 00       	mov    0x412038,%eax
  403158:	89 04 24             	mov    %eax,(%esp)
  40315b:	e8 b0 ff ff ff       	call   403110 <_werase>
  403160:	83 c4 1c             	add    $0x1c,%esp
  403163:	c3                   	ret    
  403164:	8d b6 00 00 00 00    	lea    0x0(%esi),%esi
  40316a:	8d bf 00 00 00 00    	lea    0x0(%edi),%edi

00403170 <_wclear>:
  403170:	8b 44 24 04          	mov    0x4(%esp),%eax
  403174:	85 c0                	test   %eax,%eax
  403176:	74 08                	je     403180 <_wclear+0x10>
  403178:	c6 40 24 01          	movb   $0x1,0x24(%eax)
  40317c:	eb 92                	jmp    403110 <_werase>
  40317e:	66 90                	xchg   %ax,%ax
  403180:	b8 ff ff ff ff       	mov    $0xffffffff,%eax
  403185:	c3                   	ret    
  403186:	8d 76 00             	lea    0x0(%esi),%esi
  403189:	8d bc 27 00 00 00 00 	lea    0x0(%edi,%eiz,1),%edi

00403190 <_clear>:
  403190:	a1 38 20 41 00       	mov    0x412038,%eax
  403195:	85 c0                	test   %eax,%eax
  403197:	74 17                	je     4031b0 <_clear+0x20>
  403199:	83 ec 1c             	sub    $0x1c,%esp
  40319c:	c6 40 24 01          	movb   $0x1,0x24(%eax)
  4031a0:	89 04 24             	mov    %eax,(%esp)
  4031a3:	e8 68 ff ff ff       	call   403110 <_werase>
  4031a8:	83 c4 1c             	add    $0x1c,%esp
  4031ab:	c3                   	ret    
  4031ac:	8d 74 26 00          	lea    0x0(%esi,%eiz,1),%esi
  4031b0:	b8 ff ff ff ff       	mov    $0xffffffff,%eax
  4031b5:	c3                   	ret    
  4031b6:	90                   	nop
  4031b7:	90                   	nop
  4031b8:	90                   	nop
  4031b9:	90                   	nop
  4031ba:	90                   	nop
  4031bb:	90                   	nop
  4031bc:	90                   	nop
  4031bd:	90                   	nop
  4031be:	90                   	nop
  4031bf:	90                   	nop

004031c0 <__normalize>:
  4031c0:	53                   	push   %ebx
  4031c1:	66 83 38 ff          	cmpw   $0xffff,(%eax)
  4031c5:	74 29                	je     4031f0 <__normalize+0x30>
  4031c7:	66 83 3a ff          	cmpw   $0xffff,(%edx)
  4031cb:	74 03                	je     4031d0 <__normalize+0x10>
  4031cd:	5b                   	pop    %ebx
  4031ce:	c3                   	ret    
  4031cf:	90                   	nop
  4031d0:	8b 0d 40 20 41 00    	mov    0x412040,%ecx
  4031d6:	31 c0                	xor    %eax,%eax
  4031d8:	80 79 09 00          	cmpb   $0x0,0x9(%ecx)
  4031dc:	74 04                	je     4031e2 <__normalize+0x22>
  4031de:	0f b7 41 0c          	movzwl 0xc(%ecx),%eax
  4031e2:	66 89 02             	mov    %ax,(%edx)
  4031e5:	5b                   	pop    %ebx
  4031e6:	c3                   	ret    
  4031e7:	89 f6                	mov    %esi,%esi
  4031e9:	8d bc 27 00 00 00 00 	lea    0x0(%edi,%eiz,1),%edi
  4031f0:	8b 1d 40 20 41 00    	mov    0x412040,%ebx
  4031f6:	b9 07 00 00 00       	mov    $0x7,%ecx
  4031fb:	80 7b 09 00          	cmpb   $0x0,0x9(%ebx)
  4031ff:	74 04                	je     403205 <__normalize+0x45>
  403201:	0f b7 4b 0a          	movzwl 0xa(%ebx),%ecx
  403205:	66 89 08             	mov    %cx,(%eax)
  403208:	eb bd                	jmp    4031c7 <__normalize+0x7>
  40320a:	8d b6 00 00 00 00    	lea    0x0(%esi),%esi

00403210 <__init_pair_core>:
  403210:	53                   	push   %ebx
  403211:	83 ec 08             	sub    $0x8,%esp
  403214:	66 89 54 24 04       	mov    %dx,0x4(%esp)
  403219:	8d 14 40             	lea    (%eax,%eax,2),%edx
  40321c:	a1 40 20 41 00       	mov    0x412040,%eax
  403221:	66 89 0c 24          	mov    %cx,(%esp)
  403225:	8b 80 9c 00 00 00    	mov    0x9c(%eax),%eax
  40322b:	8d 1c 90             	lea    (%eax,%edx,4),%ebx
  40322e:	8d 44 24 04          	lea    0x4(%esp),%eax
  403232:	89 e2                	mov    %esp,%edx
  403234:	e8 87 ff ff ff       	call   4031c0 <__normalize>
  403239:	80 7b 08 00          	cmpb   $0x0,0x8(%ebx)
  40323d:	0f b7 44 24 04       	movzwl 0x4(%esp),%eax
  403242:	0f b7 14 24          	movzwl (%esp),%edx
  403246:	74 0f                	je     403257 <__init_pair_core+0x47>
  403248:	66 39 03             	cmp    %ax,(%ebx)
  40324b:	74 33                	je     403280 <__init_pair_core+0x70>
  40324d:	8b 0d 3c 20 41 00    	mov    0x41203c,%ecx
  403253:	c6 41 24 01          	movb   $0x1,0x24(%ecx)
  403257:	66 89 03             	mov    %ax,(%ebx)
  40325a:	a1 28 20 41 00       	mov    0x412028,%eax
  40325f:	66 89 53 02          	mov    %dx,0x2(%ebx)
  403263:	c6 43 08 01          	movb   $0x1,0x8(%ebx)
  403267:	8d 50 01             	lea    0x1(%eax),%edx
  40326a:	89 43 04             	mov    %eax,0x4(%ebx)
  40326d:	89 15 28 20 41 00    	mov    %edx,0x412028
  403273:	83 c4 08             	add    $0x8,%esp
  403276:	5b                   	pop    %ebx
  403277:	c3                   	ret    
  403278:	90                   	nop
  403279:	8d b4 26 00 00 00 00 	lea    0x0(%esi,%eiz,1),%esi
  403280:	66 39 53 02          	cmp    %dx,0x2(%ebx)
  403284:	75 c7                	jne    40324d <__init_pair_core+0x3d>
  403286:	eb cf                	jmp    403257 <__init_pair_core+0x47>
  403288:	90                   	nop
  403289:	8d b4 26 00 00 00 00 	lea    0x0(%esi,%eiz,1),%esi

00403290 <_init_pair>:
  403290:	56                   	push   %esi
  403291:	53                   	push   %ebx
  403292:	8b 1d 40 20 41 00    	mov    0x412040,%ebx
  403298:	8b 44 24 0c          	mov    0xc(%esp),%eax
  40329c:	8b 54 24 10          	mov    0x10(%esp),%edx
  4032a0:	8b 4c 24 14          	mov    0x14(%esp),%ecx
  4032a4:	85 db                	test   %ebx,%ebx
  4032a6:	74 48                	je     4032f0 <_init_pair+0x60>
  4032a8:	66 85 c0             	test   %ax,%ax
  4032ab:	7e 43                	jle    4032f0 <_init_pair+0x60>
  4032ad:	80 7b 78 00          	cmpb   $0x0,0x78(%ebx)
  4032b1:	74 3d                	je     4032f0 <_init_pair+0x60>
  4032b3:	98                   	cwtl   
  4032b4:	3b 05 40 e1 40 00    	cmp    0x40e140,%eax
  4032ba:	7d 34                	jge    4032f0 <_init_pair+0x60>
  4032bc:	0f b7 1d 2c 20 41 00 	movzwl 0x41202c,%ebx
  4032c3:	66 39 d3             	cmp    %dx,%bx
  4032c6:	7f 28                	jg     4032f0 <_init_pair+0x60>
  4032c8:	8b 35 24 20 41 00    	mov    0x412024,%esi
  4032ce:	0f bf d2             	movswl %dx,%edx
  4032d1:	39 f2                	cmp    %esi,%edx
  4032d3:	7d 1b                	jge    4032f0 <_init_pair+0x60>
  4032d5:	66 39 cb             	cmp    %cx,%bx
  4032d8:	7f 16                	jg     4032f0 <_init_pair+0x60>
  4032da:	0f bf c9             	movswl %cx,%ecx
  4032dd:	39 ce                	cmp    %ecx,%esi
  4032df:	7e 0f                	jle    4032f0 <_init_pair+0x60>
  4032e1:	e8 2a ff ff ff       	call   403210 <__init_pair_core>
  4032e6:	31 c0                	xor    %eax,%eax
  4032e8:	5b                   	pop    %ebx
  4032e9:	5e                   	pop    %esi
  4032ea:	c3                   	ret    
  4032eb:	90                   	nop
  4032ec:	8d 74 26 00          	lea    0x0(%esi,%eiz,1),%esi
  4032f0:	b8 ff ff ff ff       	mov    $0xffffffff,%eax
  4032f5:	5b                   	pop    %ebx
  4032f6:	5e                   	pop    %esi
  4032f7:	c3                   	ret    
  4032f8:	90                   	nop
  4032f9:	8d b4 26 00 00 00 00 	lea    0x0(%esi,%eiz,1),%esi

00403300 <_has_colors>:
  403300:	a1 40 20 41 00       	mov    0x412040,%eax
  403305:	85 c0                	test   %eax,%eax
  403307:	74 08                	je     403311 <_has_colors+0x11>
  403309:	80 78 07 00          	cmpb   $0x0,0x7(%eax)
  40330d:	0f 94 c0             	sete   %al
  403310:	c3                   	ret    
  403311:	31 c0                	xor    %eax,%eax
  403313:	c3                   	ret    
  403314:	8d b6 00 00 00 00    	lea    0x0(%esi),%esi
  40331a:	8d bf 00 00 00 00    	lea    0x0(%edi),%edi

00403320 <_init_color>:
  403320:	55                   	push   %ebp
  403321:	57                   	push   %edi
  403322:	56                   	push   %esi
  403323:	53                   	push   %ebx
  403324:	83 ec 0c             	sub    $0xc,%esp
  403327:	66 83 7c 24 20 00    	cmpw   $0x0,0x20(%esp)
  40332d:	8b 74 24 24          	mov    0x24(%esp),%esi
  403331:	8b 7c 24 28          	mov    0x28(%esp),%edi
  403335:	8b 6c 24 2c          	mov    0x2c(%esp),%ebp
  403339:	8b 5c 24 20          	mov    0x20(%esp),%ebx
  40333d:	78 66                	js     4033a5 <_init_color+0x85>
  40333f:	a1 40 20 41 00       	mov    0x412040,%eax
  403344:	85 c0                	test   %eax,%eax
  403346:	74 5d                	je     4033a5 <_init_color+0x85>
  403348:	0f bf db             	movswl %bx,%ebx
  40334b:	3b 1d 24 20 41 00    	cmp    0x412024,%ebx
  403351:	7d 52                	jge    4033a5 <_init_color+0x85>
  403353:	e8 c8 66 00 00       	call   409a20 <_PDC_can_change_color>
  403358:	84 c0                	test   %al,%al
  40335a:	74 49                	je     4033a5 <_init_color+0x85>
  40335c:	8d 46 01             	lea    0x1(%esi),%eax
  40335f:	66 3d e9 03          	cmp    $0x3e9,%ax
  403363:	77 40                	ja     4033a5 <_init_color+0x85>
  403365:	8d 47 01             	lea    0x1(%edi),%eax
  403368:	66 3d e9 03          	cmp    $0x3e9,%ax
  40336c:	77 37                	ja     4033a5 <_init_color+0x85>
  40336e:	8d 45 01             	lea    0x1(%ebp),%eax
  403371:	66 3d e9 03          	cmp    $0x3e9,%ax
  403375:	77 2e                	ja     4033a5 <_init_color+0x85>
  403377:	a1 40 20 41 00       	mov    0x412040,%eax
  40337c:	0f bf ed             	movswl %bp,%ebp
  40337f:	0f bf ff             	movswl %di,%edi
  403382:	0f bf f6             	movswl %si,%esi
  403385:	c6 40 79 01          	movb   $0x1,0x79(%eax)
  403389:	89 6c 24 2c          	mov    %ebp,0x2c(%esp)
  40338d:	89 7c 24 28          	mov    %edi,0x28(%esp)
  403391:	89 74 24 24          	mov    %esi,0x24(%esp)
  403395:	89 5c 24 20          	mov    %ebx,0x20(%esp)
  403399:	83 c4 0c             	add    $0xc,%esp
  40339c:	5b                   	pop    %ebx
  40339d:	5e                   	pop    %esi
  40339e:	5f                   	pop    %edi
  40339f:	5d                   	pop    %ebp
  4033a0:	e9 bb 67 00 00       	jmp    409b60 <_PDC_init_color>
  4033a5:	83 c4 0c             	add    $0xc,%esp
  4033a8:	b8 ff ff ff ff       	mov    $0xffffffff,%eax
  4033ad:	5b                   	pop    %ebx
  4033ae:	5e                   	pop    %esi
  4033af:	5f                   	pop    %edi
  4033b0:	5d                   	pop    %ebp
  4033b1:	c3                   	ret    
  4033b2:	8d b4 26 00 00 00 00 	lea    0x0(%esi,%eiz,1),%esi
  4033b9:	8d bc 27 00 00 00 00 	lea    0x0(%edi,%eiz,1),%edi

004033c0 <_color_content>:
  4033c0:	55                   	push   %ebp
  4033c1:	57                   	push   %edi
  4033c2:	56                   	push   %esi
  4033c3:	53                   	push   %ebx
  4033c4:	83 ec 1c             	sub    $0x1c,%esp
  4033c7:	8b 5c 24 30          	mov    0x30(%esp),%ebx
  4033cb:	8b 7c 24 34          	mov    0x34(%esp),%edi
  4033cf:	8b 74 24 38          	mov    0x38(%esp),%esi
  4033d3:	8b 6c 24 3c          	mov    0x3c(%esp),%ebp
  4033d7:	66 85 db             	test   %bx,%bx
  4033da:	0f 88 90 00 00 00    	js     403470 <_color_content+0xb0>
  4033e0:	0f bf d3             	movswl %bx,%edx
  4033e3:	3b 15 24 20 41 00    	cmp    0x412024,%edx
  4033e9:	89 54 24 0c          	mov    %edx,0xc(%esp)
  4033ed:	0f 8d 7d 00 00 00    	jge    403470 <_color_content+0xb0>
  4033f3:	85 ff                	test   %edi,%edi
  4033f5:	0f 94 c1             	sete   %cl
  4033f8:	85 f6                	test   %esi,%esi
  4033fa:	0f 94 c0             	sete   %al
  4033fd:	08 c1                	or     %al,%cl
  4033ff:	75 6f                	jne    403470 <_color_content+0xb0>
  403401:	85 ed                	test   %ebp,%ebp
  403403:	74 6b                	je     403470 <_color_content+0xb0>
  403405:	e8 16 66 00 00       	call   409a20 <_PDC_can_change_color>
  40340a:	84 c0                	test   %al,%al
  40340c:	8b 54 24 0c          	mov    0xc(%esp),%edx
  403410:	75 40                	jne    403452 <_color_content+0x92>
  403412:	89 d8                	mov    %ebx,%eax
  403414:	89 da                	mov    %ebx,%edx
  403416:	83 e0 08             	and    $0x8,%eax
  403419:	66 83 f8 01          	cmp    $0x1,%ax
  40341d:	19 c0                	sbb    %eax,%eax
  40341f:	66 25 c0 fe          	and    $0xfec0,%ax
  403423:	66 05 e8 03          	add    $0x3e8,%ax
  403427:	66 83 e2 04          	and    $0x4,%dx
  40342b:	0f 45 d0             	cmovne %eax,%edx
  40342e:	66 89 17             	mov    %dx,(%edi)
  403431:	89 da                	mov    %ebx,%edx
  403433:	66 83 e2 02          	and    $0x2,%dx
  403437:	0f 45 d0             	cmovne %eax,%edx
  40343a:	66 83 e3 01          	and    $0x1,%bx
  40343e:	0f 45 d8             	cmovne %eax,%ebx
  403441:	66 89 16             	mov    %dx,(%esi)
  403444:	31 c0                	xor    %eax,%eax
  403446:	66 89 5d 00          	mov    %bx,0x0(%ebp)
  40344a:	83 c4 1c             	add    $0x1c,%esp
  40344d:	5b                   	pop    %ebx
  40344e:	5e                   	pop    %esi
  40344f:	5f                   	pop    %edi
  403450:	5d                   	pop    %ebp
  403451:	c3                   	ret    
  403452:	89 6c 24 3c          	mov    %ebp,0x3c(%esp)
  403456:	89 74 24 38          	mov    %esi,0x38(%esp)
  40345a:	89 7c 24 34          	mov    %edi,0x34(%esp)
  40345e:	89 54 24 30          	mov    %edx,0x30(%esp)
  403462:	83 c4 1c             	add    $0x1c,%esp
  403465:	5b                   	pop    %ebx
  403466:	5e                   	pop    %esi
  403467:	5f                   	pop    %edi
  403468:	5d                   	pop    %ebp
  403469:	e9 c2 65 00 00       	jmp    409a30 <_PDC_color_content>
  40346e:	66 90                	xchg   %ax,%ax
  403470:	b8 ff ff ff ff       	mov    $0xffffffff,%eax
  403475:	eb d3                	jmp    40344a <_color_content+0x8a>
  403477:	89 f6                	mov    %esi,%esi
  403479:	8d bc 27 00 00 00 00 	lea    0x0(%edi,%eiz,1),%edi

00403480 <_can_change_color>:
  403480:	e9 9b 65 00 00       	jmp    409a20 <_PDC_can_change_color>
  403485:	8d 74 26 00          	lea    0x0(%esi,%eiz,1),%esi
  403489:	8d bc 27 00 00 00 00 	lea    0x0(%edi,%eiz,1),%edi

00403490 <_pair_content>:
  403490:	53                   	push   %ebx
  403491:	8b 44 24 08          	mov    0x8(%esp),%eax
  403495:	8b 54 24 0c          	mov    0xc(%esp),%edx
  403499:	8b 4c 24 10          	mov    0x10(%esp),%ecx
  40349d:	66 85 c0             	test   %ax,%ax
  4034a0:	78 33                	js     4034d5 <_pair_content+0x45>
  4034a2:	98                   	cwtl   
  4034a3:	3b 05 40 e1 40 00    	cmp    0x40e140,%eax
  4034a9:	7d 2a                	jge    4034d5 <_pair_content+0x45>
  4034ab:	85 d2                	test   %edx,%edx
  4034ad:	74 26                	je     4034d5 <_pair_content+0x45>
  4034af:	85 c9                	test   %ecx,%ecx
  4034b1:	74 22                	je     4034d5 <_pair_content+0x45>
  4034b3:	8d 1c 40             	lea    (%eax,%eax,2),%ebx
  4034b6:	a1 40 20 41 00       	mov    0x412040,%eax
  4034bb:	8b 80 9c 00 00 00    	mov    0x9c(%eax),%eax
  4034c1:	8d 04 98             	lea    (%eax,%ebx,4),%eax
  4034c4:	0f b7 18             	movzwl (%eax),%ebx
  4034c7:	66 89 1a             	mov    %bx,(%edx)
  4034ca:	0f b7 40 02          	movzwl 0x2(%eax),%eax
  4034ce:	66 89 01             	mov    %ax,(%ecx)
  4034d1:	31 c0                	xor    %eax,%eax
  4034d3:	5b                   	pop    %ebx
  4034d4:	c3                   	ret    
  4034d5:	b8 ff ff ff ff       	mov    $0xffffffff,%eax
  4034da:	5b                   	pop    %ebx
  4034db:	c3                   	ret    
  4034dc:	8d 74 26 00          	lea    0x0(%esi,%eiz,1),%esi

004034e0 <_assume_default_colors>:
  4034e0:	53                   	push   %ebx
  4034e1:	8b 54 24 08          	mov    0x8(%esp),%edx
  4034e5:	8b 4c 24 0c          	mov    0xc(%esp),%ecx
  4034e9:	83 fa ff             	cmp    $0xffffffff,%edx
  4034ec:	7c 36                	jl     403524 <_assume_default_colors+0x44>
  4034ee:	a1 24 20 41 00       	mov    0x412024,%eax
  4034f3:	39 c8                	cmp    %ecx,%eax
  4034f5:	7e 2d                	jle    403524 <_assume_default_colors+0x44>
  4034f7:	83 f9 ff             	cmp    $0xffffffff,%ecx
  4034fa:	0f 9c c3             	setl   %bl
  4034fd:	39 c2                	cmp    %eax,%edx
  4034ff:	0f 9d c0             	setge  %al
  403502:	08 c3                	or     %al,%bl
  403504:	75 1e                	jne    403524 <_assume_default_colors+0x44>
  403506:	a1 40 20 41 00       	mov    0x412040,%eax
  40350b:	31 db                	xor    %ebx,%ebx
  40350d:	80 78 78 00          	cmpb   $0x0,0x78(%eax)
  403511:	74 0d                	je     403520 <_assume_default_colors+0x40>
  403513:	0f bf c9             	movswl %cx,%ecx
  403516:	0f bf d2             	movswl %dx,%edx
  403519:	31 c0                	xor    %eax,%eax
  40351b:	e8 f0 fc ff ff       	call   403210 <__init_pair_core>
  403520:	89 d8                	mov    %ebx,%eax
  403522:	5b                   	pop    %ebx
  403523:	c3                   	ret    
  403524:	bb ff ff ff ff       	mov    $0xffffffff,%ebx
  403529:	eb f5                	jmp    403520 <_assume_default_colors+0x40>
  40352b:	90                   	nop
  40352c:	8d 74 26 00          	lea    0x0(%esi,%eiz,1),%esi

00403530 <_use_default_colors>:
  403530:	83 ec 08             	sub    $0x8,%esp
  403533:	b8 ff ff ff ff       	mov    $0xffffffff,%eax
  403538:	c6 05 2e 20 41 00 01 	movb   $0x1,0x41202e
  40353f:	c7 44 24 04 ff ff ff 	movl   $0xffffffff,0x4(%esp)
  403546:	ff 
  403547:	c7 04 24 ff ff ff ff 	movl   $0xffffffff,(%esp)
  40354e:	66 a3 2c 20 41 00    	mov    %ax,0x41202c
  403554:	e8 87 ff ff ff       	call   4034e0 <_assume_default_colors>
  403559:	83 c4 08             	add    $0x8,%esp
  40355c:	c3                   	ret    
  40355d:	8d 76 00             	lea    0x0(%esi),%esi

00403560 <_PDC_set_line_color>:
  403560:	8b 15 40 20 41 00    	mov    0x412040,%edx
  403566:	8b 44 24 04          	mov    0x4(%esp),%eax
  40356a:	85 d2                	test   %edx,%edx
  40356c:	74 22                	je     403590 <_PDC_set_line_color+0x30>
  40356e:	66 83 f8 ff          	cmp    $0xffff,%ax
  403572:	7c 1c                	jl     403590 <_PDC_set_line_color+0x30>
  403574:	0f bf c8             	movswl %ax,%ecx
  403577:	3b 0d 24 20 41 00    	cmp    0x412024,%ecx
  40357d:	7d 11                	jge    403590 <_PDC_set_line_color+0x30>
  40357f:	66 89 42 68          	mov    %ax,0x68(%edx)
  403583:	31 c0                	xor    %eax,%eax
  403585:	c3                   	ret    
  403586:	8d 76 00             	lea    0x0(%esi),%esi
  403589:	8d bc 27 00 00 00 00 	lea    0x0(%edi,%eiz,1),%edi
  403590:	b8 ff ff ff ff       	mov    $0xffffffff,%eax
  403595:	c3                   	ret    
  403596:	8d 76 00             	lea    0x0(%esi),%esi
  403599:	8d bc 27 00 00 00 00 	lea    0x0(%edi,%eiz,1),%edi

004035a0 <_PDC_init_atrtab>:
  4035a0:	56                   	push   %esi
  4035a1:	53                   	push   %ebx
  4035a2:	83 ec 10             	sub    $0x10,%esp
  4035a5:	a1 40 20 41 00       	mov    0x412040,%eax
  4035aa:	80 78 78 00          	cmpb   $0x0,0x78(%eax)
  4035ae:	8b 98 9c 00 00 00    	mov    0x9c(%eax),%ebx
  4035b4:	74 09                	je     4035bf <_PDC_init_atrtab+0x1f>
  4035b6:	80 3d 2e 20 41 00 00 	cmpb   $0x0,0x41202e
  4035bd:	74 4b                	je     40360a <_PDC_init_atrtab+0x6a>
  4035bf:	b8 ff ff ff ff       	mov    $0xffffffff,%eax
  4035c4:	ba ff ff ff ff       	mov    $0xffffffff,%edx
  4035c9:	66 89 44 24 0e       	mov    %ax,0xe(%esp)
  4035ce:	66 89 54 24 0c       	mov    %dx,0xc(%esp)
  4035d3:	8d 54 24 0e          	lea    0xe(%esp),%edx
  4035d7:	8d 44 24 0c          	lea    0xc(%esp),%eax
  4035db:	e8 e0 fb ff ff       	call   4031c0 <__normalize>
  4035e0:	0f b7 74 24 0c       	movzwl 0xc(%esp),%esi
  4035e5:	0f b7 4c 24 0e       	movzwl 0xe(%esp),%ecx
  4035ea:	8d 93 00 0c 00 00    	lea    0xc00(%ebx),%edx
  4035f0:	89 d8                	mov    %ebx,%eax
  4035f2:	66 89 30             	mov    %si,(%eax)
  4035f5:	66 89 48 02          	mov    %cx,0x2(%eax)
  4035f9:	83 c0 0c             	add    $0xc,%eax
  4035fc:	c6 40 fc 00          	movb   $0x0,-0x4(%eax)
  403600:	39 d0                	cmp    %edx,%eax
  403602:	75 ee                	jne    4035f2 <_PDC_init_atrtab+0x52>
  403604:	83 c4 10             	add    $0x10,%esp
  403607:	5b                   	pop    %ebx
  403608:	5e                   	pop    %esi
  403609:	c3                   	ret    
  40360a:	b9 07 00 00 00       	mov    $0x7,%ecx
  40360f:	31 f6                	xor    %esi,%esi
  403611:	66 89 4c 24 0c       	mov    %cx,0xc(%esp)
  403616:	66 89 74 24 0e       	mov    %si,0xe(%esp)
  40361b:	eb b6                	jmp    4035d3 <_PDC_init_atrtab+0x33>
  40361d:	8d 76 00             	lea    0x0(%esi),%esi

00403620 <_start_color>:
  403620:	a1 40 20 41 00       	mov    0x412040,%eax
  403625:	85 c0                	test   %eax,%eax
  403627:	74 5a                	je     403683 <_start_color+0x63>
  403629:	80 78 07 00          	cmpb   $0x0,0x7(%eax)
  40362d:	75 54                	jne    403683 <_start_color+0x63>
  40362f:	83 ec 1c             	sub    $0x1c,%esp
  403632:	c6 40 78 01          	movb   $0x1,0x78(%eax)
  403636:	c7 04 24 00 00 00 00 	movl   $0x0,(%esp)
  40363d:	e8 6e 69 00 00       	call   409fb0 <_PDC_set_blink>
  403642:	80 3d 2e 20 41 00 00 	cmpb   $0x0,0x41202e
  403649:	75 0b                	jne    403656 <_start_color+0x36>
  40364b:	a1 40 20 41 00       	mov    0x412040,%eax
  403650:	80 78 09 00          	cmpb   $0x0,0x9(%eax)
  403654:	75 0b                	jne    403661 <_start_color+0x41>
  403656:	e8 45 ff ff ff       	call   4035a0 <_PDC_init_atrtab>
  40365b:	31 c0                	xor    %eax,%eax
  40365d:	83 c4 1c             	add    $0x1c,%esp
  403660:	c3                   	ret    
  403661:	c7 04 24 e0 f1 40 00 	movl   $0x40f1e0,(%esp)
  403668:	e8 e7 96 00 00       	call   40cd54 <_getenv>
  40366d:	85 c0                	test   %eax,%eax
  40366f:	74 e5                	je     403656 <_start_color+0x36>
  403671:	c6 05 2e 20 41 00 01 	movb   $0x1,0x41202e
  403678:	e8 23 ff ff ff       	call   4035a0 <_PDC_init_atrtab>
  40367d:	31 c0                	xor    %eax,%eax
  40367f:	83 c4 1c             	add    $0x1c,%esp
  403682:	c3                   	ret    
  403683:	b8 ff ff ff ff       	mov    $0xffffffff,%eax
  403688:	c3                   	ret    
  403689:	8d b4 26 00 00 00 00 	lea    0x0(%esi,%eiz,1),%esi

00403690 <_free_pair>:
  403690:	8b 44 24 04          	mov    0x4(%esp),%eax
  403694:	8d 50 ff             	lea    -0x1(%eax),%edx
  403697:	81 fa fe 00 00 00    	cmp    $0xfe,%edx
  40369d:	77 21                	ja     4036c0 <_free_pair+0x30>
  40369f:	8d 14 40             	lea    (%eax,%eax,2),%edx
  4036a2:	a1 40 20 41 00       	mov    0x412040,%eax
  4036a7:	8b 80 9c 00 00 00    	mov    0x9c(%eax),%eax
  4036ad:	8d 04 90             	lea    (%eax,%edx,4),%eax
  4036b0:	80 78 08 00          	cmpb   $0x0,0x8(%eax)
  4036b4:	74 0a                	je     4036c0 <_free_pair+0x30>
  4036b6:	c6 40 08 00          	movb   $0x0,0x8(%eax)
  4036ba:	31 c0                	xor    %eax,%eax
  4036bc:	c3                   	ret    
  4036bd:	8d 76 00             	lea    0x0(%esi),%esi
  4036c0:	b8 ff ff ff ff       	mov    $0xffffffff,%eax
  4036c5:	c3                   	ret    
  4036c6:	8d 76 00             	lea    0x0(%esi),%esi
  4036c9:	8d bc 27 00 00 00 00 	lea    0x0(%edi,%eiz,1),%edi

004036d0 <_find_pair>:
  4036d0:	a1 40 20 41 00       	mov    0x412040,%eax
  4036d5:	56                   	push   %esi
  4036d6:	53                   	push   %ebx
  4036d7:	8b 5c 24 0c          	mov    0xc(%esp),%ebx
  4036db:	8b 74 24 10          	mov    0x10(%esp),%esi
  4036df:	8b 90 9c 00 00 00    	mov    0x9c(%eax),%edx
  4036e5:	31 c0                	xor    %eax,%eax
  4036e7:	83 c2 08             	add    $0x8,%edx
  4036ea:	eb 11                	jmp    4036fd <_find_pair+0x2d>
  4036ec:	8d 74 26 00          	lea    0x0(%esi,%eiz,1),%esi
  4036f0:	83 c0 01             	add    $0x1,%eax
  4036f3:	83 c2 0c             	add    $0xc,%edx
  4036f6:	3d 00 01 00 00       	cmp    $0x100,%eax
  4036fb:	74 18                	je     403715 <_find_pair+0x45>
  4036fd:	80 3a 00             	cmpb   $0x0,(%edx)
  403700:	74 ee                	je     4036f0 <_find_pair+0x20>
  403702:	0f bf 4a f8          	movswl -0x8(%edx),%ecx
  403706:	39 d9                	cmp    %ebx,%ecx
  403708:	75 e6                	jne    4036f0 <_find_pair+0x20>
  40370a:	0f bf 4a fa          	movswl -0x6(%edx),%ecx
  40370e:	39 f1                	cmp    %esi,%ecx
  403710:	75 de                	jne    4036f0 <_find_pair+0x20>
  403712:	5b                   	pop    %ebx
  403713:	5e                   	pop    %esi
  403714:	c3                   	ret    
  403715:	b8 ff ff ff ff       	mov    $0xffffffff,%eax
  40371a:	5b                   	pop    %ebx
  40371b:	5e                   	pop    %esi
  40371c:	c3                   	ret    
  40371d:	8d 76 00             	lea    0x0(%esi),%esi

00403720 <_alloc_pair>:
  403720:	55                   	push   %ebp
  403721:	57                   	push   %edi
  403722:	56                   	push   %esi
  403723:	53                   	push   %ebx
  403724:	83 ec 0c             	sub    $0xc,%esp
  403727:	8b 5c 24 20          	mov    0x20(%esp),%ebx
  40372b:	8b 74 24 24          	mov    0x24(%esp),%esi
  40372f:	89 1c 24             	mov    %ebx,(%esp)
  403732:	89 74 24 04          	mov    %esi,0x4(%esp)
  403736:	e8 95 ff ff ff       	call   4036d0 <_find_pair>
  40373b:	83 f8 ff             	cmp    $0xffffffff,%eax
  40373e:	74 10                	je     403750 <_alloc_pair+0x30>
  403740:	83 c4 0c             	add    $0xc,%esp
  403743:	5b                   	pop    %ebx
  403744:	5e                   	pop    %esi
  403745:	5f                   	pop    %edi
  403746:	5d                   	pop    %ebp
  403747:	c3                   	ret    
  403748:	90                   	nop
  403749:	8d b4 26 00 00 00 00 	lea    0x0(%esi,%eiz,1),%esi
  403750:	a1 40 20 41 00       	mov    0x412040,%eax
  403755:	31 ed                	xor    %ebp,%ebp
  403757:	31 d2                	xor    %edx,%edx
  403759:	bf 01 00 00 00       	mov    $0x1,%edi
  40375e:	8b 80 9c 00 00 00    	mov    0x9c(%eax),%eax
  403764:	83 c0 10             	add    $0x10,%eax
  403767:	89 f6                	mov    %esi,%esi
  403769:	8d bc 27 00 00 00 00 	lea    0x0(%edi,%eiz,1),%edi
  403770:	80 78 04 00          	cmpb   $0x0,0x4(%eax)
  403774:	74 1a                	je     403790 <_alloc_pair+0x70>
  403776:	85 d2                	test   %edx,%edx
  403778:	75 46                	jne    4037c0 <_alloc_pair+0xa0>
  40377a:	8b 10                	mov    (%eax),%edx
  40377c:	89 fd                	mov    %edi,%ebp
  40377e:	83 c7 01             	add    $0x1,%edi
  403781:	83 c0 0c             	add    $0xc,%eax
  403784:	81 ff 00 01 00 00    	cmp    $0x100,%edi
  40378a:	75 e4                	jne    403770 <_alloc_pair+0x50>
  40378c:	89 ef                	mov    %ebp,%edi
  40378e:	66 90                	xchg   %ax,%ax
  403790:	0f bf c7             	movswl %di,%eax
  403793:	0f bf f6             	movswl %si,%esi
  403796:	0f bf db             	movswl %bx,%ebx
  403799:	89 74 24 08          	mov    %esi,0x8(%esp)
  40379d:	89 5c 24 04          	mov    %ebx,0x4(%esp)
  4037a1:	89 04 24             	mov    %eax,(%esp)
  4037a4:	e8 e7 fa ff ff       	call   403290 <_init_pair>
  4037a9:	83 f8 ff             	cmp    $0xffffffff,%eax
  4037ac:	0f 45 c7             	cmovne %edi,%eax
  4037af:	83 c4 0c             	add    $0xc,%esp
  4037b2:	5b                   	pop    %ebx
  4037b3:	5e                   	pop    %esi
  4037b4:	5f                   	pop    %edi
  4037b5:	5d                   	pop    %ebp
  4037b6:	c3                   	ret    
  4037b7:	89 f6                	mov    %esi,%esi
  4037b9:	8d bc 27 00 00 00 00 	lea    0x0(%edi,%eiz,1),%edi
  4037c0:	8b 08                	mov    (%eax),%ecx
  4037c2:	39 d1                	cmp    %edx,%ecx
  4037c4:	7d b8                	jge    40377e <_alloc_pair+0x5e>
  4037c6:	89 ca                	mov    %ecx,%edx
  4037c8:	eb b2                	jmp    40377c <_alloc_pair+0x5c>
  4037ca:	90                   	nop
  4037cb:	90                   	nop
  4037cc:	90                   	nop
  4037cd:	90                   	nop
  4037ce:	90                   	nop
  4037cf:	90                   	nop

004037d0 <__get_box>:
  4037d0:	55                   	push   %ebp
  4037d1:	57                   	push   %edi
  4037d2:	89 d7                	mov    %edx,%edi
  4037d4:	56                   	push   %esi
  4037d5:	89 c6                	mov    %eax,%esi
  4037d7:	a1 40 20 41 00       	mov    0x412040,%eax
  4037dc:	53                   	push   %ebx
  4037dd:	8b 68 7c             	mov    0x7c(%eax),%ebp
  4037e0:	8b 98 80 00 00 00    	mov    0x80(%eax),%ebx
  4037e6:	39 dd                	cmp    %ebx,%ebp
  4037e8:	7c 06                	jl     4037f0 <__get_box+0x20>
  4037ea:	89 e8                	mov    %ebp,%eax
  4037ec:	89 dd                	mov    %ebx,%ebp
  4037ee:	89 c3                	mov    %eax,%ebx
  4037f0:	89 e8                	mov    %ebp,%eax
  4037f2:	99                   	cltd   
  4037f3:	f7 3d 30 20 41 00    	idivl  0x412030
  4037f9:	89 06                	mov    %eax,(%esi)
  4037fb:	89 e8                	mov    %ebp,%eax
  4037fd:	99                   	cltd   
  4037fe:	f7 3d 30 20 41 00    	idivl  0x412030
  403804:	89 d8                	mov    %ebx,%eax
  403806:	89 11                	mov    %edx,(%ecx)
  403808:	99                   	cltd   
  403809:	f7 3d 30 20 41 00    	idivl  0x412030
  40380f:	89 07                	mov    %eax,(%edi)
  403811:	89 d8                	mov    %ebx,%eax
  403813:	29 eb                	sub    %ebp,%ebx
  403815:	99                   	cltd   
  403816:	f7 3d 30 20 41 00    	idivl  0x412030
  40381c:	8b 44 24 14          	mov    0x14(%esp),%eax
  403820:	89 10                	mov    %edx,(%eax)
  403822:	03 1f                	add    (%edi),%ebx
  403824:	89 d8                	mov    %ebx,%eax
  403826:	2b 06                	sub    (%esi),%eax
  403828:	5b                   	pop    %ebx
  403829:	5e                   	pop    %esi
  40382a:	5f                   	pop    %edi
  40382b:	5d                   	pop    %ebp
  40382c:	c3                   	ret    
  40382d:	8d 76 00             	lea    0x0(%esi),%esi

00403830 <__copy>:
  403830:	a1 40 20 41 00       	mov    0x412040,%eax
  403835:	83 78 7c ff          	cmpl   $0xffffffff,0x7c(%eax)
  403839:	74 2a                	je     403865 <__copy+0x35>
  40383b:	55                   	push   %ebp
  40383c:	57                   	push   %edi
  40383d:	56                   	push   %esi
  40383e:	53                   	push   %ebx
  40383f:	83 ec 4c             	sub    $0x4c,%esp
  403842:	8d 44 24 3c          	lea    0x3c(%esp),%eax
  403846:	8d 4c 24 38          	lea    0x38(%esp),%ecx
  40384a:	8d 54 24 34          	lea    0x34(%esp),%edx
  40384e:	89 04 24             	mov    %eax,(%esp)
  403851:	8d 44 24 30          	lea    0x30(%esp),%eax
  403855:	e8 76 ff ff ff       	call   4037d0 <__get_box>
  40385a:	85 c0                	test   %eax,%eax
  40385c:	75 09                	jne    403867 <__copy+0x37>
  40385e:	83 c4 4c             	add    $0x4c,%esp
  403861:	5b                   	pop    %ebx
  403862:	5e                   	pop    %esi
  403863:	5f                   	pop    %edi
  403864:	5d                   	pop    %ebp
  403865:	f3 c3                	repz ret 
  403867:	83 c0 01             	add    $0x1,%eax
  40386a:	89 04 24             	mov    %eax,(%esp)
  40386d:	e8 da 94 00 00       	call   40cd4c <_malloc>
  403872:	8b 7c 24 34          	mov    0x34(%esp),%edi
  403876:	89 c6                	mov    %eax,%esi
  403878:	8b 44 24 30          	mov    0x30(%esp),%eax
  40387c:	39 f8                	cmp    %edi,%eax
  40387e:	89 c1                	mov    %eax,%ecx
  403880:	89 44 24 1c          	mov    %eax,0x1c(%esp)
  403884:	89 fa                	mov    %edi,%edx
  403886:	89 7c 24 18          	mov    %edi,0x18(%esp)
  40388a:	0f 8f ee 00 00 00    	jg     40397e <__copy+0x14e>
  403890:	8b 7c 24 3c          	mov    0x3c(%esp),%edi
  403894:	8b 44 24 38          	mov    0x38(%esp),%eax
  403898:	83 c2 01             	add    $0x1,%edx
  40389b:	8b 2d 3c 20 41 00    	mov    0x41203c,%ebp
  4038a1:	89 54 24 28          	mov    %edx,0x28(%esp)
  4038a5:	31 d2                	xor    %edx,%edx
  4038a7:	89 4c 24 14          	mov    %ecx,0x14(%esp)
  4038ab:	89 7c 24 20          	mov    %edi,0x20(%esp)
  4038af:	8b 3d 30 20 41 00    	mov    0x412030,%edi
  4038b5:	89 44 24 2c          	mov    %eax,0x2c(%esp)
  4038b9:	89 7c 24 24          	mov    %edi,0x24(%esp)
  4038bd:	89 cf                	mov    %ecx,%edi
  4038bf:	c1 e7 02             	shl    $0x2,%edi
  4038c2:	8b 5c 24 14          	mov    0x14(%esp),%ebx
  4038c6:	39 5c 24 18          	cmp    %ebx,0x18(%esp)
  4038ca:	8b 4c 24 24          	mov    0x24(%esp),%ecx
  4038ce:	0f 44 4c 24 20       	cmove  0x20(%esp),%ecx
  4038d3:	89 4c 24 10          	mov    %ecx,0x10(%esp)
  4038d7:	8d 0c 85 00 00 00 00 	lea    0x0(,%eax,4),%ecx
  4038de:	29 d0                	sub    %edx,%eax
  4038e0:	eb 13                	jmp    4038f5 <__copy+0xc5>
  4038e2:	8b 5d 2c             	mov    0x2c(%ebp),%ebx
  4038e5:	83 c2 01             	add    $0x1,%edx
  4038e8:	8b 1c 3b             	mov    (%ebx,%edi,1),%ebx
  4038eb:	8b 1c 0b             	mov    (%ebx,%ecx,1),%ebx
  4038ee:	83 c1 04             	add    $0x4,%ecx
  4038f1:	88 5c 16 ff          	mov    %bl,-0x1(%esi,%edx,1)
  4038f5:	8d 1c 10             	lea    (%eax,%edx,1),%ebx
  4038f8:	39 5c 24 10          	cmp    %ebx,0x10(%esp)
  4038fc:	7f e4                	jg     4038e2 <__copy+0xb2>
  4038fe:	8b 4c 24 18          	mov    0x18(%esp),%ecx
  403902:	39 4c 24 1c          	cmp    %ecx,0x1c(%esp)
  403906:	75 12                	jne    40391a <__copy+0xea>
  403908:	eb 14                	jmp    40391e <__copy+0xee>
  40390a:	8d b6 00 00 00 00    	lea    0x0(%esi),%esi
  403910:	80 7c 16 ff 20       	cmpb   $0x20,-0x1(%esi,%edx,1)
  403915:	75 07                	jne    40391e <__copy+0xee>
  403917:	83 ea 01             	sub    $0x1,%edx
  40391a:	85 d2                	test   %edx,%edx
  40391c:	75 f2                	jne    403910 <__copy+0xe0>
  40391e:	8b 4c 24 14          	mov    0x14(%esp),%ecx
  403922:	39 4c 24 18          	cmp    %ecx,0x18(%esp)
  403926:	7e 07                	jle    40392f <__copy+0xff>
  403928:	c6 04 16 0a          	movb   $0xa,(%esi,%edx,1)
  40392c:	83 c2 01             	add    $0x1,%edx
  40392f:	83 44 24 14 01       	addl   $0x1,0x14(%esp)
  403934:	83 c7 04             	add    $0x4,%edi
  403937:	8b 44 24 14          	mov    0x14(%esp),%eax
  40393b:	3b 44 24 28          	cmp    0x28(%esp),%eax
  40393f:	74 17                	je     403958 <__copy+0x128>
  403941:	8b 4c 24 14          	mov    0x14(%esp),%ecx
  403945:	39 4c 24 1c          	cmp    %ecx,0x1c(%esp)
  403949:	b8 00 00 00 00       	mov    $0x0,%eax
  40394e:	0f 44 44 24 2c       	cmove  0x2c(%esp),%eax
  403953:	e9 6a ff ff ff       	jmp    4038c2 <__copy+0x92>
  403958:	89 d0                	mov    %edx,%eax
  40395a:	89 54 24 04          	mov    %edx,0x4(%esp)
  40395e:	89 34 24             	mov    %esi,(%esp)
  403961:	c6 04 06 00          	movb   $0x0,(%esi,%eax,1)
  403965:	e8 26 3e 00 00       	call   407790 <_PDC_setclipboard>
  40396a:	89 34 24             	mov    %esi,(%esp)
  40396d:	e8 f2 93 00 00       	call   40cd64 <_free>
  403972:	83 c4 4c             	add    $0x4c,%esp
  403975:	5b                   	pop    %ebx
  403976:	5e                   	pop    %esi
  403977:	5f                   	pop    %edi
  403978:	5d                   	pop    %ebp
  403979:	e9 e7 fe ff ff       	jmp    403865 <__copy+0x35>
  40397e:	31 c0                	xor    %eax,%eax
  403980:	31 d2                	xor    %edx,%edx
  403982:	eb d6                	jmp    40395a <__copy+0x12a>
  403984:	8d b6 00 00 00 00    	lea    0x0(%esi),%esi
  40398a:	8d bf 00 00 00 00    	lea    0x0(%edi),%edi

00403990 <__paste>:
  403990:	55                   	push   %ebp
  403991:	57                   	push   %edi
  403992:	56                   	push   %esi
  403993:	53                   	push   %ebx
  403994:	83 ec 2c             	sub    $0x2c,%esp
  403997:	8d 44 24 1c          	lea    0x1c(%esp),%eax
  40399b:	89 44 24 04          	mov    %eax,0x4(%esp)
  40399f:	8d 44 24 18          	lea    0x18(%esp),%eax
  4039a3:	89 04 24             	mov    %eax,(%esp)
  4039a6:	e8 25 3d 00 00       	call   4076d0 <_PDC_getclipboard>
  4039ab:	85 c0                	test   %eax,%eax
  4039ad:	0f 85 cb 00 00 00    	jne    403a7e <__paste+0xee>
  4039b3:	8b 44 24 1c          	mov    0x1c(%esp),%eax
  4039b7:	85 c0                	test   %eax,%eax
  4039b9:	0f 84 bf 00 00 00    	je     403a7e <__paste+0xee>
  4039bf:	8b 1d 40 20 41 00    	mov    0x412040,%ebx
  4039c5:	8b b3 94 00 00 00    	mov    0x94(%ebx),%esi
  4039cb:	01 c6                	add    %eax,%esi
  4039cd:	3b b3 98 00 00 00    	cmp    0x98(%ebx),%esi
  4039d3:	7f 6b                	jg     403a40 <__paste+0xb0>
  4039d5:	8b 6c 24 18          	mov    0x18(%esp),%ebp
  4039d9:	eb 1f                	jmp    4039fa <__paste+0x6a>
  4039db:	90                   	nop
  4039dc:	8d 74 26 00          	lea    0x0(%esi,%eiz,1),%esi
  4039e0:	83 e8 01             	sub    $0x1,%eax
  4039e3:	8b 93 94 00 00 00    	mov    0x94(%ebx),%edx
  4039e9:	3b 93 98 00 00 00    	cmp    0x98(%ebx),%edx
  4039ef:	89 44 24 1c          	mov    %eax,0x1c(%esp)
  4039f3:	0f b6 74 05 00       	movzbl 0x0(%ebp,%eax,1),%esi
  4039f8:	7c 27                	jl     403a21 <__paste+0x91>
  4039fa:	83 f8 01             	cmp    $0x1,%eax
  4039fd:	7f e1                	jg     4039e0 <__paste+0x50>
  4039ff:	0f be 5d 00          	movsbl 0x0(%ebp),%ebx
  403a03:	89 2c 24             	mov    %ebp,(%esp)
  403a06:	e8 65 3e 00 00       	call   407870 <_PDC_freeclipboard>
  403a0b:	a1 40 20 41 00       	mov    0x412040,%eax
  403a10:	c7 40 4c 00 00 00 00 	movl   $0x0,0x4c(%eax)
  403a17:	89 d8                	mov    %ebx,%eax
  403a19:	83 c4 2c             	add    $0x2c,%esp
  403a1c:	5b                   	pop    %ebx
  403a1d:	5e                   	pop    %esi
  403a1e:	5f                   	pop    %edi
  403a1f:	5d                   	pop    %ebp
  403a20:	c3                   	ret    
  403a21:	89 f1                	mov    %esi,%ecx
  403a23:	8d 7a 01             	lea    0x1(%edx),%edi
  403a26:	0f be f1             	movsbl %cl,%esi
  403a29:	8b 8b 90 00 00 00    	mov    0x90(%ebx),%ecx
  403a2f:	89 bb 94 00 00 00    	mov    %edi,0x94(%ebx)
  403a35:	89 34 91             	mov    %esi,(%ecx,%edx,4)
  403a38:	eb c0                	jmp    4039fa <__paste+0x6a>
  403a3a:	8d b6 00 00 00 00    	lea    0x0(%esi),%esi
  403a40:	8d 04 b5 00 00 00 00 	lea    0x0(,%esi,4),%eax
  403a47:	89 44 24 04          	mov    %eax,0x4(%esp)
  403a4b:	8b 83 90 00 00 00    	mov    0x90(%ebx),%eax
  403a51:	89 04 24             	mov    %eax,(%esp)
  403a54:	e8 d3 92 00 00       	call   40cd2c <_realloc>
  403a59:	89 83 90 00 00 00    	mov    %eax,0x90(%ebx)
  403a5f:	8b 1d 40 20 41 00    	mov    0x412040,%ebx
  403a65:	8b 83 90 00 00 00    	mov    0x90(%ebx),%eax
  403a6b:	85 c0                	test   %eax,%eax
  403a6d:	74 0f                	je     403a7e <__paste+0xee>
  403a6f:	89 b3 98 00 00 00    	mov    %esi,0x98(%ebx)
  403a75:	8b 44 24 1c          	mov    0x1c(%esp),%eax
  403a79:	e9 57 ff ff ff       	jmp    4039d5 <__paste+0x45>
  403a7e:	b8 ff ff ff ff       	mov    $0xffffffff,%eax
  403a83:	eb 94                	jmp    403a19 <__paste+0x89>
  403a85:	8d 74 26 00          	lea    0x0(%esi,%eiz,1),%esi
  403a89:	8d bc 27 00 00 00 00 	lea    0x0(%edi,%eiz,1),%edi

00403a90 <__highlight.part.0>:
  403a90:	55                   	push   %ebp
  403a91:	57                   	push   %edi
  403a92:	56                   	push   %esi
  403a93:	53                   	push   %ebx
  403a94:	83 ec 4c             	sub    $0x4c,%esp
  403a97:	8d 44 24 3c          	lea    0x3c(%esp),%eax
  403a9b:	8d 4c 24 38          	lea    0x38(%esp),%ecx
  403a9f:	8d 54 24 34          	lea    0x34(%esp),%edx
  403aa3:	89 04 24             	mov    %eax,(%esp)
  403aa6:	8d 44 24 30          	lea    0x30(%esp),%eax
  403aaa:	e8 21 fd ff ff       	call   4037d0 <__get_box>
  403aaf:	8b 7c 24 34          	mov    0x34(%esp),%edi
  403ab3:	8b 44 24 30          	mov    0x30(%esp),%eax
  403ab7:	39 f8                	cmp    %edi,%eax
  403ab9:	89 7c 24 18          	mov    %edi,0x18(%esp)
  403abd:	89 44 24 28          	mov    %eax,0x28(%esp)
  403ac1:	8b 3d 3c 20 41 00    	mov    0x41203c,%edi
  403ac7:	0f 8f 8c 00 00 00    	jg     403b59 <__highlight.part.0+0xc9>
  403acd:	8b 5c 24 3c          	mov    0x3c(%esp),%ebx
  403ad1:	8b 6c 24 28          	mov    0x28(%esp),%ebp
  403ad5:	8b 74 24 18          	mov    0x18(%esp),%esi
  403ad9:	8b 44 24 38          	mov    0x38(%esp),%eax
  403add:	89 5c 24 1c          	mov    %ebx,0x1c(%esp)
  403ae1:	8b 1d 30 20 41 00    	mov    0x412030,%ebx
  403ae7:	83 c6 01             	add    $0x1,%esi
  403aea:	89 44 24 2c          	mov    %eax,0x2c(%esp)
  403aee:	89 74 24 24          	mov    %esi,0x24(%esp)
  403af2:	89 5c 24 20          	mov    %ebx,0x20(%esp)
  403af6:	89 eb                	mov    %ebp,%ebx
  403af8:	c1 e3 02             	shl    $0x2,%ebx
  403afb:	90                   	nop
  403afc:	8d 74 26 00          	lea    0x0(%esi,%eiz,1),%esi
  403b00:	3b 6c 24 18          	cmp    0x18(%esp),%ebp
  403b04:	8b 74 24 20          	mov    0x20(%esp),%esi
  403b08:	8d 14 85 00 00 00 00 	lea    0x0(,%eax,4),%edx
  403b0f:	0f 44 74 24 1c       	cmove  0x1c(%esp),%esi
  403b14:	89 6c 24 14          	mov    %ebp,0x14(%esp)
  403b18:	eb 1b                	jmp    403b35 <__highlight.part.0+0xa5>
  403b1a:	8d b6 00 00 00 00    	lea    0x0(%esi),%esi
  403b20:	8b 4f 2c             	mov    0x2c(%edi),%ecx
  403b23:	83 c0 01             	add    $0x1,%eax
  403b26:	8b 2c 19             	mov    (%ecx,%ebx,1),%ebp
  403b29:	01 d5                	add    %edx,%ebp
  403b2b:	83 c2 04             	add    $0x4,%edx
  403b2e:	81 75 00 00 00 20 00 	xorl   $0x200000,0x0(%ebp)
  403b35:	39 f0                	cmp    %esi,%eax
  403b37:	7c e7                	jl     403b20 <__highlight.part.0+0x90>
  403b39:	8b 6c 24 14          	mov    0x14(%esp),%ebp
  403b3d:	83 c3 04             	add    $0x4,%ebx
  403b40:	83 c5 01             	add    $0x1,%ebp
  403b43:	3b 6c 24 24          	cmp    0x24(%esp),%ebp
  403b47:	74 10                	je     403b59 <__highlight.part.0+0xc9>
  403b49:	39 6c 24 28          	cmp    %ebp,0x28(%esp)
  403b4d:	b8 00 00 00 00       	mov    $0x0,%eax
  403b52:	0f 44 44 24 2c       	cmove  0x2c(%esp),%eax
  403b57:	eb a7                	jmp    403b00 <__highlight.part.0+0x70>
  403b59:	89 3c 24             	mov    %edi,(%esp)
  403b5c:	e8 bf 21 00 00       	call   405d20 <_wrefresh>
  403b61:	83 c4 4c             	add    $0x4c,%esp
  403b64:	5b                   	pop    %ebx
  403b65:	5e                   	pop    %esi
  403b66:	5f                   	pop    %edi
  403b67:	5d                   	pop    %ebp
  403b68:	c3                   	ret    
  403b69:	8d b4 26 00 00 00 00 	lea    0x0(%esi,%eiz,1),%esi

00403b70 <_wgetch>:
  403b70:	55                   	push   %ebp
  403b71:	57                   	push   %edi
  403b72:	56                   	push   %esi
  403b73:	53                   	push   %ebx
  403b74:	83 ec 2c             	sub    $0x2c,%esp
  403b77:	8b 7c 24 40          	mov    0x40(%esp),%edi
  403b7b:	85 ff                	test   %edi,%edi
  403b7d:	0f 84 2d 02 00 00    	je     403db0 <_wgetch+0x240>
  403b83:	8b 0d 40 20 41 00    	mov    0x412040,%ecx
  403b89:	85 c9                	test   %ecx,%ecx
  403b8b:	0f 84 1f 02 00 00    	je     403db0 <_wgetch+0x240>
  403b91:	8b 41 40             	mov    0x40(%ecx),%eax
  403b94:	85 c0                	test   %eax,%eax
  403b96:	0f 85 b6 01 00 00    	jne    403d52 <_wgetch+0x1e2>
  403b9c:	8b 5f 40             	mov    0x40(%edi),%ebx
  403b9f:	31 f6                	xor    %esi,%esi
  403ba1:	85 db                	test   %ebx,%ebx
  403ba3:	74 1b                	je     403bc0 <_wgetch+0x50>
  403ba5:	89 d8                	mov    %ebx,%eax
  403ba7:	ba 1f 85 eb 51       	mov    $0x51eb851f,%edx
  403bac:	c1 fb 1f             	sar    $0x1f,%ebx
  403baf:	f7 ea                	imul   %edx
  403bb1:	b8 01 00 00 00       	mov    $0x1,%eax
  403bb6:	c1 fa 04             	sar    $0x4,%edx
  403bb9:	29 da                	sub    %ebx,%edx
  403bbb:	89 d6                	mov    %edx,%esi
  403bbd:	0f 44 f0             	cmove  %eax,%esi
  403bc0:	f6 47 18 10          	testb  $0x10,0x18(%edi)
  403bc4:	75 27                	jne    403bed <_wgetch+0x7d>
  403bc6:	80 7f 25 00          	cmpb   $0x0,0x25(%edi)
  403bca:	0f 85 70 04 00 00    	jne    404040 <_wgetch+0x4d0>
  403bd0:	8b 47 04             	mov    0x4(%edi),%eax
  403bd3:	03 47 14             	add    0x14(%edi),%eax
  403bd6:	3b 41 14             	cmp    0x14(%ecx),%eax
  403bd9:	0f 84 52 04 00 00    	je     404031 <_wgetch+0x4c1>
  403bdf:	89 3c 24             	mov    %edi,(%esp)
  403be2:	e8 39 21 00 00       	call   405d20 <_wrefresh>
  403be7:	8b 0d 40 20 41 00    	mov    0x412040,%ecx
  403bed:	8b 81 94 00 00 00    	mov    0x94(%ecx),%eax
  403bf3:	85 c0                	test   %eax,%eax
  403bf5:	0f 85 c5 01 00 00    	jne    403dc0 <_wgetch+0x250>
  403bfb:	80 79 04 00          	cmpb   $0x0,0x4(%ecx)
  403bff:	75 0a                	jne    403c0b <_wgetch+0x9b>
  403c01:	80 79 02 00          	cmpb   $0x0,0x2(%ecx)
  403c05:	0f 84 85 02 00 00    	je     403e90 <_wgetch+0x320>
  403c0b:	c7 81 88 00 00 00 00 	movl   $0x0,0x88(%ecx)
  403c12:	00 00 00 
  403c15:	c7 81 8c 00 00 00 00 	movl   $0x0,0x8c(%ecx)
  403c1c:	00 00 00 
  403c1f:	90                   	nop
  403c20:	e8 4b 49 00 00       	call   408570 <_PDC_check_key>
  403c25:	84 c0                	test   %al,%al
  403c27:	75 3a                	jne    403c63 <_wgetch+0xf3>
  403c29:	a1 40 20 41 00       	mov    0x412040,%eax
  403c2e:	8b 48 40             	mov    0x40(%eax),%ecx
  403c31:	85 c9                	test   %ecx,%ecx
  403c33:	0f 85 27 01 00 00    	jne    403d60 <_wgetch+0x1f0>
  403c39:	8b 57 40             	mov    0x40(%edi),%edx
  403c3c:	85 d2                	test   %edx,%edx
  403c3e:	0f 85 1c 01 00 00    	jne    403d60 <_wgetch+0x1f0>
  403c44:	80 7f 27 00          	cmpb   $0x0,0x27(%edi)
  403c48:	0f 85 62 01 00 00    	jne    403db0 <_wgetch+0x240>
  403c4e:	c7 04 24 32 00 00 00 	movl   $0x32,(%esp)
  403c55:	e8 b6 15 00 00       	call   405210 <_napms>
  403c5a:	e8 11 49 00 00       	call   408570 <_PDC_check_key>
  403c5f:	84 c0                	test   %al,%al
  403c61:	74 c6                	je     403c29 <_wgetch+0xb9>
  403c63:	e8 48 49 00 00       	call   4085b0 <_PDC_get_key>
  403c68:	8b 2d 40 20 41 00    	mov    0x412040,%ebp
  403c6e:	89 c3                	mov    %eax,%ebx
  403c70:	f6 45 4c 01          	testb  $0x1,0x4c(%ebp)
  403c74:	74 12                	je     403c88 <_wgetch+0x118>
  403c76:	83 f8 03             	cmp    $0x3,%eax
  403c79:	0f 84 81 01 00 00    	je     403e00 <_wgetch+0x290>
  403c7f:	83 f8 16             	cmp    $0x16,%eax
  403c82:	0f 84 ec 01 00 00    	je     403e74 <_wgetch+0x304>
  403c88:	81 fb 1b 02 00 00    	cmp    $0x21b,%ebx
  403c8e:	0f b6 55 51          	movzbl 0x51(%ebp),%edx
  403c92:	75 08                	jne    403c9c <_wgetch+0x12c>
  403c94:	84 d2                	test   %dl,%dl
  403c96:	0f 85 74 01 00 00    	jne    403e10 <_wgetch+0x2a0>
  403c9c:	84 d2                	test   %dl,%dl
  403c9e:	74 0a                	je     403caa <_wgetch+0x13a>
  403ca0:	80 7f 2a 00          	cmpb   $0x0,0x2a(%edi)
  403ca4:	0f 84 76 ff ff ff    	je     403c20 <_wgetch+0xb0>
  403caa:	83 fb ff             	cmp    $0xffffffff,%ebx
  403cad:	0f 84 6d ff ff ff    	je     403c20 <_wgetch+0xb0>
  403cb3:	83 7d 7c ff          	cmpl   $0xffffffff,0x7c(%ebp)
  403cb7:	74 0b                	je     403cc4 <_wgetch+0x154>
  403cb9:	e8 d2 fd ff ff       	call   403a90 <__highlight.part.0>
  403cbe:	8b 2d 40 20 41 00    	mov    0x412040,%ebp
  403cc4:	83 fb 0d             	cmp    $0xd,%ebx
  403cc7:	c7 85 80 00 00 00 ff 	movl   $0xffffffff,0x80(%ebp)
  403cce:	ff ff ff 
  403cd1:	c7 45 7c ff ff ff ff 	movl   $0xffffffff,0x7c(%ebp)
  403cd8:	0f 84 92 00 00 00    	je     403d70 <_wgetch+0x200>
  403cde:	80 7d 03 00          	cmpb   $0x0,0x3(%ebp)
  403ce2:	74 0a                	je     403cee <_wgetch+0x17e>
  403ce4:	80 7d 51 00          	cmpb   $0x0,0x51(%ebp)
  403ce8:	0f 84 f2 00 00 00    	je     403de0 <_wgetch+0x270>
  403cee:	80 7d 04 00          	cmpb   $0x0,0x4(%ebp)
  403cf2:	0f 85 68 03 00 00    	jne    404060 <_wgetch+0x4f0>
  403cf8:	80 7d 02 00          	cmpb   $0x0,0x2(%ebp)
  403cfc:	0f 85 5e 03 00 00    	jne    404060 <_wgetch+0x4f0>
  403d02:	83 fb 08             	cmp    $0x8,%ebx
  403d05:	8b 85 88 00 00 00    	mov    0x88(%ebp),%eax
  403d0b:	0f 84 7f 00 00 00    	je     403d90 <_wgetch+0x220>
  403d11:	3d fd 01 00 00       	cmp    $0x1fd,%eax
  403d16:	7f 12                	jg     403d2a <_wgetch+0x1ba>
  403d18:	8b 95 84 00 00 00    	mov    0x84(%ebp),%edx
  403d1e:	8d 48 01             	lea    0x1(%eax),%ecx
  403d21:	89 8d 88 00 00 00    	mov    %ecx,0x88(%ebp)
  403d27:	89 1c 82             	mov    %ebx,(%edx,%eax,4)
  403d2a:	83 fb 0d             	cmp    $0xd,%ebx
  403d2d:	74 09                	je     403d38 <_wgetch+0x1c8>
  403d2f:	83 fb 0a             	cmp    $0xa,%ebx
  403d32:	0f 85 e8 fe ff ff    	jne    403c20 <_wgetch+0xb0>
  403d38:	8b 85 8c 00 00 00    	mov    0x8c(%ebp),%eax
  403d3e:	8b 95 84 00 00 00    	mov    0x84(%ebp),%edx
  403d44:	8d 48 01             	lea    0x1(%eax),%ecx
  403d47:	89 8d 8c 00 00 00    	mov    %ecx,0x8c(%ebp)
  403d4d:	8b 04 82             	mov    (%edx,%eax,4),%eax
  403d50:	eb 63                	jmp    403db5 <_wgetch+0x245>
  403d52:	8d 34 00             	lea    (%eax,%eax,1),%esi
  403d55:	e9 66 fe ff ff       	jmp    403bc0 <_wgetch+0x50>
  403d5a:	8d b6 00 00 00 00    	lea    0x0(%esi),%esi
  403d60:	85 f6                	test   %esi,%esi
  403d62:	74 4c                	je     403db0 <_wgetch+0x240>
  403d64:	83 ee 01             	sub    $0x1,%esi
  403d67:	e9 e2 fe ff ff       	jmp    403c4e <_wgetch+0xde>
  403d6c:	8d 74 26 00          	lea    0x0(%esi,%eiz,1),%esi
  403d70:	80 7d 01 00          	cmpb   $0x0,0x1(%ebp)
  403d74:	0f 84 64 ff ff ff    	je     403cde <_wgetch+0x16e>
  403d7a:	80 7d 04 00          	cmpb   $0x0,0x4(%ebp)
  403d7e:	b8 0a 00 00 00       	mov    $0xa,%eax
  403d83:	0f 44 d8             	cmove  %eax,%ebx
  403d86:	e9 53 ff ff ff       	jmp    403cde <_wgetch+0x16e>
  403d8b:	90                   	nop
  403d8c:	8d 74 26 00          	lea    0x0(%esi,%eiz,1),%esi
  403d90:	3b 85 8c 00 00 00    	cmp    0x8c(%ebp),%eax
  403d96:	0f 8e 84 fe ff ff    	jle    403c20 <_wgetch+0xb0>
  403d9c:	83 e8 01             	sub    $0x1,%eax
  403d9f:	89 85 88 00 00 00    	mov    %eax,0x88(%ebp)
  403da5:	e9 76 fe ff ff       	jmp    403c20 <_wgetch+0xb0>
  403daa:	8d b6 00 00 00 00    	lea    0x0(%esi),%esi
  403db0:	b8 ff ff ff ff       	mov    $0xffffffff,%eax
  403db5:	83 c4 2c             	add    $0x2c,%esp
  403db8:	5b                   	pop    %ebx
  403db9:	5e                   	pop    %esi
  403dba:	5f                   	pop    %edi
  403dbb:	5d                   	pop    %ebp
  403dbc:	c3                   	ret    
  403dbd:	8d 76 00             	lea    0x0(%esi),%esi
  403dc0:	8b 91 90 00 00 00    	mov    0x90(%ecx),%edx
  403dc6:	83 e8 01             	sub    $0x1,%eax
  403dc9:	89 81 94 00 00 00    	mov    %eax,0x94(%ecx)
  403dcf:	8b 04 82             	mov    (%edx,%eax,4),%eax
  403dd2:	83 c4 2c             	add    $0x2c,%esp
  403dd5:	5b                   	pop    %ebx
  403dd6:	5e                   	pop    %esi
  403dd7:	5f                   	pop    %edi
  403dd8:	5d                   	pop    %ebp
  403dd9:	c3                   	ret    
  403dda:	8d b6 00 00 00 00    	lea    0x0(%esi),%esi
  403de0:	89 5c 24 04          	mov    %ebx,0x4(%esp)
  403de4:	89 3c 24             	mov    %edi,(%esp)
  403de7:	e8 34 63 00 00       	call   40a120 <_waddch>
  403dec:	89 3c 24             	mov    %edi,(%esp)
  403def:	e8 2c 1f 00 00       	call   405d20 <_wrefresh>
  403df4:	8b 2d 40 20 41 00    	mov    0x412040,%ebp
  403dfa:	e9 ef fe ff ff       	jmp    403cee <_wgetch+0x17e>
  403dff:	90                   	nop
  403e00:	e8 2b fa ff ff       	call   403830 <__copy>
  403e05:	e9 16 fe ff ff       	jmp    403c20 <_wgetch+0xb0>
  403e0a:	8d b6 00 00 00 00    	lea    0x0(%esi),%esi
  403e10:	8b 45 64             	mov    0x64(%ebp),%eax
  403e13:	89 44 24 18          	mov    %eax,0x18(%esp)
  403e17:	8b 45 28             	mov    0x28(%ebp),%eax
  403e1a:	85 c0                	test   %eax,%eax
  403e1c:	89 44 24 1c          	mov    %eax,0x1c(%esp)
  403e20:	0f 85 9a 00 00 00    	jne    403ec0 <_wgetch+0x350>
  403e26:	f6 44 24 18 01       	testb  $0x1,0x18(%esp)
  403e2b:	0f 84 af 01 00 00    	je     403fe0 <_wgetch+0x470>
  403e31:	0f b7 45 5c          	movzwl 0x5c(%ebp),%eax
  403e35:	8b 4d 58             	mov    0x58(%ebp),%ecx
  403e38:	83 e0 07             	and    $0x7,%eax
  403e3b:	0f af 0d 30 20 41 00 	imul   0x412030,%ecx
  403e42:	03 4d 54             	add    0x54(%ebp),%ecx
  403e45:	66 83 f8 01          	cmp    $0x1,%ax
  403e49:	89 cb                	mov    %ecx,%ebx
  403e4b:	0f 84 96 02 00 00    	je     4040e7 <_wgetch+0x577>
  403e51:	66 83 f8 05          	cmp    $0x5,%ax
  403e55:	0f 84 7b 02 00 00    	je     4040d6 <_wgetch+0x566>
  403e5b:	66 85 c0             	test   %ax,%ax
  403e5e:	75 7d                	jne    403edd <_wgetch+0x36d>
  403e60:	e8 cb f9 ff ff       	call   403830 <__copy>
  403e65:	8b 2d 40 20 41 00    	mov    0x412040,%ebp
  403e6b:	0f b6 55 51          	movzbl 0x51(%ebp),%edx
  403e6f:	e9 59 01 00 00       	jmp    403fcd <_wgetch+0x45d>
  403e74:	e8 17 fb ff ff       	call   403990 <__paste>
  403e79:	8b 2d 40 20 41 00    	mov    0x412040,%ebp
  403e7f:	89 c3                	mov    %eax,%ebx
  403e81:	e9 02 fe ff ff       	jmp    403c88 <_wgetch+0x118>
  403e86:	8d 76 00             	lea    0x0(%esi),%esi
  403e89:	8d bc 27 00 00 00 00 	lea    0x0(%edi,%eiz,1),%edi
  403e90:	8b 81 8c 00 00 00    	mov    0x8c(%ecx),%eax
  403e96:	3b 81 88 00 00 00    	cmp    0x88(%ecx),%eax
  403e9c:	0f 8d 69 fd ff ff    	jge    403c0b <_wgetch+0x9b>
  403ea2:	8b 91 84 00 00 00    	mov    0x84(%ecx),%edx
  403ea8:	8d 58 01             	lea    0x1(%eax),%ebx
  403eab:	89 99 8c 00 00 00    	mov    %ebx,0x8c(%ecx)
  403eb1:	8b 04 82             	mov    (%edx,%eax,4),%eax
  403eb4:	e9 fc fe ff ff       	jmp    403db5 <_wgetch+0x245>
  403eb9:	8d b4 26 00 00 00 00 	lea    0x0(%esi,%eiz,1),%esi
  403ec0:	0f b7 45 5c          	movzwl 0x5c(%ebp),%eax
  403ec4:	a8 08                	test   $0x8,%al
  403ec6:	74 0b                	je     403ed3 <_wgetch+0x363>
  403ec8:	f6 44 24 18 01       	testb  $0x1,0x18(%esp)
  403ecd:	0f 85 62 ff ff ff    	jne    403e35 <_wgetch+0x2c5>
  403ed3:	f6 45 5e 08          	testb  $0x8,0x5e(%ebp)
  403ed7:	0f 85 03 01 00 00    	jne    403fe0 <_wgetch+0x470>
  403edd:	31 c0                	xor    %eax,%eax
  403edf:	8b 4c 24 18          	mov    0x18(%esp),%ecx
  403ee3:	0f a3 c1             	bt     %eax,%ecx
  403ee6:	73 7d                	jae    403f65 <_wgetch+0x3f5>
  403ee8:	0f b7 54 45 5c       	movzwl 0x5c(%ebp,%eax,2),%edx
  403eed:	8d 0c 80             	lea    (%eax,%eax,4),%ecx
  403ef0:	bb 02 00 00 00       	mov    $0x2,%ebx
  403ef5:	d3 e3                	shl    %cl,%ebx
  403ef7:	83 e2 07             	and    $0x7,%edx
  403efa:	85 5c 24 1c          	test   %ebx,0x1c(%esp)
  403efe:	75 0a                	jne    403f0a <_wgetch+0x39a>
  403f00:	66 83 fa 01          	cmp    $0x1,%dx
  403f04:	0f 84 16 01 00 00    	je     404020 <_wgetch+0x4b0>
  403f0a:	bb 04 00 00 00       	mov    $0x4,%ebx
  403f0f:	d3 e3                	shl    %cl,%ebx
  403f11:	85 5c 24 1c          	test   %ebx,0x1c(%esp)
  403f15:	75 0a                	jne    403f21 <_wgetch+0x3b1>
  403f17:	66 83 fa 02          	cmp    $0x2,%dx
  403f1b:	0f 84 ff 00 00 00    	je     404020 <_wgetch+0x4b0>
  403f21:	bb 08 00 00 00       	mov    $0x8,%ebx
  403f26:	d3 e3                	shl    %cl,%ebx
  403f28:	85 5c 24 1c          	test   %ebx,0x1c(%esp)
  403f2c:	75 0a                	jne    403f38 <_wgetch+0x3c8>
  403f2e:	66 83 fa 03          	cmp    $0x3,%dx
  403f32:	0f 84 e8 00 00 00    	je     404020 <_wgetch+0x4b0>
  403f38:	bb 10 00 00 00       	mov    $0x10,%ebx
  403f3d:	d3 e3                	shl    %cl,%ebx
  403f3f:	85 5c 24 1c          	test   %ebx,0x1c(%esp)
  403f43:	75 0a                	jne    403f4f <_wgetch+0x3df>
  403f45:	66 83 fa 05          	cmp    $0x5,%dx
  403f49:	0f 84 d1 00 00 00    	je     404020 <_wgetch+0x4b0>
  403f4f:	bb 01 00 00 00       	mov    $0x1,%ebx
  403f54:	d3 e3                	shl    %cl,%ebx
  403f56:	85 5c 24 1c          	test   %ebx,0x1c(%esp)
  403f5a:	75 09                	jne    403f65 <_wgetch+0x3f5>
  403f5c:	66 85 d2             	test   %dx,%dx
  403f5f:	0f 84 bb 00 00 00    	je     404020 <_wgetch+0x4b0>
  403f65:	83 c0 01             	add    $0x1,%eax
  403f68:	83 f8 03             	cmp    $0x3,%eax
  403f6b:	0f 85 6e ff ff ff    	jne    403edf <_wgetch+0x36f>
  403f71:	f6 44 24 18 08       	testb  $0x8,0x18(%esp)
  403f76:	74 0e                	je     403f86 <_wgetch+0x416>
  403f78:	f7 44 24 1c 10 42 00 	testl  $0x4210,0x1c(%esp)
  403f7f:	00 
  403f80:	0f 84 38 01 00 00    	je     4040be <_wgetch+0x54e>
  403f86:	f6 44 24 18 60       	testb  $0x60,0x18(%esp)
  403f8b:	0f 84 d9 00 00 00    	je     40406a <_wgetch+0x4fa>
  403f91:	f7 44 24 1c 00 00 00 	testl  $0x2000000,0x1c(%esp)
  403f98:	02 
  403f99:	0f 84 16 01 00 00    	je     4040b5 <_wgetch+0x545>
  403f9f:	8b 45 54             	mov    0x54(%ebp),%eax
  403fa2:	89 44 24 04          	mov    %eax,0x4(%esp)
  403fa6:	8b 45 58             	mov    0x58(%ebp),%eax
  403fa9:	89 04 24             	mov    %eax,(%esp)
  403fac:	e8 9f 28 00 00       	call   406850 <_PDC_mouse_in_slk>
  403fb1:	85 c0                	test   %eax,%eax
  403fb3:	8b 2d 40 20 41 00    	mov    0x412040,%ebp
  403fb9:	0f 84 bc 00 00 00    	je     40407b <_wgetch+0x50b>
  403fbf:	f6 45 5c 03          	testb  $0x3,0x5c(%ebp)
  403fc3:	0f 85 fe 00 00 00    	jne    4040c7 <_wgetch+0x557>
  403fc9:	0f b6 55 51          	movzbl 0x51(%ebp),%edx
  403fcd:	84 d2                	test   %dl,%dl
  403fcf:	0f 84 4b fc ff ff    	je     403c20 <_wgetch+0xb0>
  403fd5:	bb ff ff ff ff       	mov    $0xffffffff,%ebx
  403fda:	e9 c1 fc ff ff       	jmp    403ca0 <_wgetch+0x130>
  403fdf:	90                   	nop
  403fe0:	f6 44 24 18 02       	testb  $0x2,0x18(%esp)
  403fe5:	0f 84 f2 fe ff ff    	je     403edd <_wgetch+0x36d>
  403feb:	0f b7 55 5e          	movzwl 0x5e(%ebp),%edx
  403fef:	31 c0                	xor    %eax,%eax
  403ff1:	83 e2 07             	and    $0x7,%edx
  403ff4:	66 83 fa 02          	cmp    $0x2,%dx
  403ff8:	0f 85 e1 fe ff ff    	jne    403edf <_wgetch+0x36f>
  403ffe:	c6 45 51 00          	movb   $0x0,0x51(%ebp)
  404002:	e8 89 f9 ff ff       	call   403990 <__paste>
  404007:	8b 2d 40 20 41 00    	mov    0x412040,%ebp
  40400d:	89 c3                	mov    %eax,%ebx
  40400f:	0f b6 55 51          	movzbl 0x51(%ebp),%edx
  404013:	e9 84 fc ff ff       	jmp    403c9c <_wgetch+0x12c>
  404018:	90                   	nop
  404019:	8d b4 26 00 00 00 00 	lea    0x0(%esi,%eiz,1),%esi
  404020:	ba 01 00 00 00       	mov    $0x1,%edx
  404025:	89 c1                	mov    %eax,%ecx
  404027:	d3 e2                	shl    %cl,%edx
  404029:	31 55 64             	xor    %edx,0x64(%ebp)
  40402c:	e9 34 ff ff ff       	jmp    403f65 <_wgetch+0x3f5>
  404031:	8b 07                	mov    (%edi),%eax
  404033:	03 47 10             	add    0x10(%edi),%eax
  404036:	3b 41 10             	cmp    0x10(%ecx),%eax
  404039:	0f 85 a0 fb ff ff    	jne    403bdf <_wgetch+0x6f>
  40403f:	90                   	nop
  404040:	89 3c 24             	mov    %edi,(%esp)
  404043:	e8 38 2a 00 00       	call   406a80 <_is_wintouched>
  404048:	84 c0                	test   %al,%al
  40404a:	0f 85 8f fb ff ff    	jne    403bdf <_wgetch+0x6f>
  404050:	8b 0d 40 20 41 00    	mov    0x412040,%ecx
  404056:	e9 92 fb ff ff       	jmp    403bed <_wgetch+0x7d>
  40405b:	90                   	nop
  40405c:	8d 74 26 00          	lea    0x0(%esi,%eiz,1),%esi
  404060:	83 c4 2c             	add    $0x2c,%esp
  404063:	89 d8                	mov    %ebx,%eax
  404065:	5b                   	pop    %ebx
  404066:	5e                   	pop    %esi
  404067:	5f                   	pop    %edi
  404068:	5d                   	pop    %ebp
  404069:	c3                   	ret    
  40406a:	8b 44 24 18          	mov    0x18(%esp),%eax
  40406e:	85 c0                	test   %eax,%eax
  404070:	0f 85 29 ff ff ff    	jne    403f9f <_wgetch+0x42f>
  404076:	e9 5a ff ff ff       	jmp    403fd5 <_wgetch+0x465>
  40407b:	80 7d 51 00          	cmpb   $0x0,0x51(%ebp)
  40407f:	74 0a                	je     40408b <_wgetch+0x51b>
  404081:	80 7f 2a 00          	cmpb   $0x0,0x2a(%edi)
  404085:	0f 84 95 fb ff ff    	je     403c20 <_wgetch+0xb0>
  40408b:	83 7d 7c ff          	cmpl   $0xffffffff,0x7c(%ebp)
  40408f:	bb 1b 02 00 00       	mov    $0x21b,%ebx
  404094:	0f 85 1f fc ff ff    	jne    403cb9 <_wgetch+0x149>
  40409a:	c7 85 80 00 00 00 ff 	movl   $0xffffffff,0x80(%ebp)
  4040a1:	ff ff ff 
  4040a4:	c7 45 7c ff ff ff ff 	movl   $0xffffffff,0x7c(%ebp)
  4040ab:	bb 1b 02 00 00       	mov    $0x21b,%ebx
  4040b0:	e9 29 fc ff ff       	jmp    403cde <_wgetch+0x16e>
  4040b5:	83 65 64 9f          	andl   $0xffffff9f,0x64(%ebp)
  4040b9:	e9 e1 fe ff ff       	jmp    403f9f <_wgetch+0x42f>
  4040be:	83 75 64 08          	xorl   $0x8,0x64(%ebp)
  4040c2:	e9 bf fe ff ff       	jmp    403f86 <_wgetch+0x416>
  4040c7:	8d 98 08 01 00 00    	lea    0x108(%eax),%ebx
  4040cd:	0f b6 55 51          	movzbl 0x51(%ebp),%edx
  4040d1:	e9 c6 fb ff ff       	jmp    403c9c <_wgetch+0x12c>
  4040d6:	83 7d 7c ff          	cmpl   $0xffffffff,0x7c(%ebp)
  4040da:	75 2e                	jne    40410a <_wgetch+0x59a>
  4040dc:	89 8d 80 00 00 00    	mov    %ecx,0x80(%ebp)
  4040e2:	e9 e2 fe ff ff       	jmp    403fc9 <_wgetch+0x459>
  4040e7:	83 7d 7c ff          	cmpl   $0xffffffff,0x7c(%ebp)
  4040eb:	74 0f                	je     4040fc <_wgetch+0x58c>
  4040ed:	e8 9e f9 ff ff       	call   403a90 <__highlight.part.0>
  4040f2:	8b 2d 40 20 41 00    	mov    0x412040,%ebp
  4040f8:	0f b6 55 51          	movzbl 0x51(%ebp),%edx
  4040fc:	89 9d 80 00 00 00    	mov    %ebx,0x80(%ebp)
  404102:	89 5d 7c             	mov    %ebx,0x7c(%ebp)
  404105:	e9 c3 fe ff ff       	jmp    403fcd <_wgetch+0x45d>
  40410a:	e8 81 f9 ff ff       	call   403a90 <__highlight.part.0>
  40410f:	8b 2d 40 20 41 00    	mov    0x412040,%ebp
  404115:	83 7d 7c ff          	cmpl   $0xffffffff,0x7c(%ebp)
  404119:	89 9d 80 00 00 00    	mov    %ebx,0x80(%ebp)
  40411f:	0f 84 a4 fe ff ff    	je     403fc9 <_wgetch+0x459>
  404125:	e8 66 f9 ff ff       	call   403a90 <__highlight.part.0>
  40412a:	8b 2d 40 20 41 00    	mov    0x412040,%ebp
  404130:	0f b6 55 51          	movzbl 0x51(%ebp),%edx
  404134:	e9 94 fe ff ff       	jmp    403fcd <_wgetch+0x45d>
  404139:	8d b4 26 00 00 00 00 	lea    0x0(%esi,%eiz,1),%esi

00404140 <_mvgetch>:
  404140:	83 ec 1c             	sub    $0x1c,%esp
  404143:	8b 44 24 24          	mov    0x24(%esp),%eax
  404147:	89 44 24 04          	mov    %eax,0x4(%esp)
  40414b:	8b 44 24 20          	mov    0x20(%esp),%eax
  40414f:	89 04 24             	mov    %eax,(%esp)
  404152:	e8 09 12 00 00       	call   405360 <_move>
  404157:	83 f8 ff             	cmp    $0xffffffff,%eax
  40415a:	74 14                	je     404170 <_mvgetch+0x30>
  40415c:	a1 38 20 41 00       	mov    0x412038,%eax
  404161:	89 44 24 20          	mov    %eax,0x20(%esp)
  404165:	83 c4 1c             	add    $0x1c,%esp
  404168:	e9 03 fa ff ff       	jmp    403b70 <_wgetch>
  40416d:	8d 76 00             	lea    0x0(%esi),%esi
  404170:	b8 ff ff ff ff       	mov    $0xffffffff,%eax
  404175:	83 c4 1c             	add    $0x1c,%esp
  404178:	c3                   	ret    
  404179:	8d b4 26 00 00 00 00 	lea    0x0(%esi,%eiz,1),%esi

00404180 <_mvwgetch>:
  404180:	53                   	push   %ebx
  404181:	83 ec 18             	sub    $0x18,%esp
  404184:	8b 44 24 28          	mov    0x28(%esp),%eax
  404188:	8b 5c 24 20          	mov    0x20(%esp),%ebx
  40418c:	89 44 24 08          	mov    %eax,0x8(%esp)
  404190:	8b 44 24 24          	mov    0x24(%esp),%eax
  404194:	89 1c 24             	mov    %ebx,(%esp)
  404197:	89 44 24 04          	mov    %eax,0x4(%esp)
  40419b:	e8 80 12 00 00       	call   405420 <_wmove>
  4041a0:	83 f8 ff             	cmp    $0xffffffff,%eax
  4041a3:	74 0d                	je     4041b2 <_mvwgetch+0x32>
  4041a5:	89 5c 24 20          	mov    %ebx,0x20(%esp)
  4041a9:	83 c4 18             	add    $0x18,%esp
  4041ac:	5b                   	pop    %ebx
  4041ad:	e9 be f9 ff ff       	jmp    403b70 <_wgetch>
  4041b2:	83 c4 18             	add    $0x18,%esp
  4041b5:	b8 ff ff ff ff       	mov    $0xffffffff,%eax
  4041ba:	5b                   	pop    %ebx
  4041bb:	c3                   	ret    
  4041bc:	8d 74 26 00          	lea    0x0(%esi,%eiz,1),%esi

004041c0 <_PDC_ungetch>:
  4041c0:	a1 40 20 41 00       	mov    0x412040,%eax
  4041c5:	8b 90 94 00 00 00    	mov    0x94(%eax),%edx
  4041cb:	3b 90 98 00 00 00    	cmp    0x98(%eax),%edx
  4041d1:	7d 1d                	jge    4041f0 <_PDC_ungetch+0x30>
  4041d3:	53                   	push   %ebx
  4041d4:	8d 5a 01             	lea    0x1(%edx),%ebx
  4041d7:	8b 88 90 00 00 00    	mov    0x90(%eax),%ecx
  4041dd:	89 98 94 00 00 00    	mov    %ebx,0x94(%eax)
  4041e3:	8b 44 24 08          	mov    0x8(%esp),%eax
  4041e7:	89 04 91             	mov    %eax,(%ecx,%edx,4)
  4041ea:	31 c0                	xor    %eax,%eax
  4041ec:	5b                   	pop    %ebx
  4041ed:	c3                   	ret    
  4041ee:	66 90                	xchg   %ax,%ax
  4041f0:	b8 ff ff ff ff       	mov    $0xffffffff,%eax
  4041f5:	c3                   	ret    
  4041f6:	8d 76 00             	lea    0x0(%esi),%esi
  4041f9:	8d bc 27 00 00 00 00 	lea    0x0(%edi,%eiz,1),%edi

00404200 <_flushinp>:
  404200:	a1 40 20 41 00       	mov    0x412040,%eax
  404205:	85 c0                	test   %eax,%eax
  404207:	74 37                	je     404240 <_flushinp+0x40>
  404209:	83 ec 0c             	sub    $0xc,%esp
  40420c:	e8 ff 4a 00 00       	call   408d10 <_PDC_flushinp>
  404211:	a1 40 20 41 00       	mov    0x412040,%eax
  404216:	c7 80 8c 00 00 00 01 	movl   $0x1,0x8c(%eax)
  40421d:	00 00 00 
  404220:	c7 80 88 00 00 00 00 	movl   $0x0,0x88(%eax)
  404227:	00 00 00 
  40422a:	c7 80 94 00 00 00 00 	movl   $0x0,0x94(%eax)
  404231:	00 00 00 
  404234:	31 c0                	xor    %eax,%eax
  404236:	83 c4 0c             	add    $0xc,%esp
  404239:	c3                   	ret    
  40423a:	8d b6 00 00 00 00    	lea    0x0(%esi),%esi
  404240:	b8 ff ff ff ff       	mov    $0xffffffff,%eax
  404245:	c3                   	ret    
  404246:	8d 76 00             	lea    0x0(%esi),%esi
  404249:	8d bc 27 00 00 00 00 	lea    0x0(%edi,%eiz,1),%edi

00404250 <_PDC_get_key_modifiers>:
  404250:	8b 15 40 20 41 00    	mov    0x412040,%edx
  404256:	b8 ff ff ff ff       	mov    $0xffffffff,%eax
  40425b:	85 d2                	test   %edx,%edx
  40425d:	74 03                	je     404262 <_PDC_get_key_modifiers+0x12>
  40425f:	8b 42 4c             	mov    0x4c(%edx),%eax
  404262:	f3 c3                	repz ret 
  404264:	8d b6 00 00 00 00    	lea    0x0(%esi),%esi
  40426a:	8d bf 00 00 00 00    	lea    0x0(%edi),%edi

00404270 <_PDC_return_key_modifiers>:
  404270:	a1 40 20 41 00       	mov    0x412040,%eax
  404275:	8b 54 24 04          	mov    0x4(%esp),%edx
  404279:	85 c0                	test   %eax,%eax
  40427b:	74 08                	je     404285 <_PDC_return_key_modifiers+0x15>
  40427d:	88 50 50             	mov    %dl,0x50(%eax)
  404280:	e9 4b 4b 00 00       	jmp    408dd0 <_PDC_modifiers_set>
  404285:	b8 ff ff ff ff       	mov    $0xffffffff,%eax
  40428a:	c3                   	ret    
  40428b:	90                   	nop
  40428c:	90                   	nop
  40428d:	90                   	nop
  40428e:	90                   	nop
  40428f:	90                   	nop

00404290 <_getbegy>:
  404290:	8b 44 24 04          	mov    0x4(%esp),%eax
  404294:	85 c0                	test   %eax,%eax
  404296:	74 04                	je     40429c <_getbegy+0xc>
  404298:	8b 40 10             	mov    0x10(%eax),%eax
  40429b:	c3                   	ret    
  40429c:	b8 ff ff ff ff       	mov    $0xffffffff,%eax
  4042a1:	c3                   	ret    
  4042a2:	8d b4 26 00 00 00 00 	lea    0x0(%esi,%eiz,1),%esi
  4042a9:	8d bc 27 00 00 00 00 	lea    0x0(%edi,%eiz,1),%edi

004042b0 <_getbegx>:
  4042b0:	8b 44 24 04          	mov    0x4(%esp),%eax
  4042b4:	85 c0                	test   %eax,%eax
  4042b6:	74 04                	je     4042bc <_getbegx+0xc>
  4042b8:	8b 40 14             	mov    0x14(%eax),%eax
  4042bb:	c3                   	ret    
  4042bc:	b8 ff ff ff ff       	mov    $0xffffffff,%eax
  4042c1:	c3                   	ret    
  4042c2:	8d b4 26 00 00 00 00 	lea    0x0(%esi,%eiz,1),%esi
  4042c9:	8d bc 27 00 00 00 00 	lea    0x0(%edi,%eiz,1),%edi

004042d0 <_getcury>:
  4042d0:	8b 44 24 04          	mov    0x4(%esp),%eax
  4042d4:	85 c0                	test   %eax,%eax
  4042d6:	74 03                	je     4042db <_getcury+0xb>
  4042d8:	8b 00                	mov    (%eax),%eax
  4042da:	c3                   	ret    
  4042db:	b8 ff ff ff ff       	mov    $0xffffffff,%eax
  4042e0:	c3                   	ret    
  4042e1:	eb 0d                	jmp    4042f0 <_getcurx>
  4042e3:	90                   	nop
  4042e4:	90                   	nop
  4042e5:	90                   	nop
  4042e6:	90                   	nop
  4042e7:	90                   	nop
  4042e8:	90                   	nop
  4042e9:	90                   	nop
  4042ea:	90                   	nop
  4042eb:	90                   	nop
  4042ec:	90                   	nop
  4042ed:	90                   	nop
  4042ee:	90                   	nop
  4042ef:	90                   	nop

004042f0 <_getcurx>:
  4042f0:	8b 44 24 04          	mov    0x4(%esp),%eax
  4042f4:	85 c0                	test   %eax,%eax
  4042f6:	74 04                	je     4042fc <_getcurx+0xc>
  4042f8:	8b 40 04             	mov    0x4(%eax),%eax
  4042fb:	c3                   	ret    
  4042fc:	b8 ff ff ff ff       	mov    $0xffffffff,%eax
  404301:	c3                   	ret    
  404302:	8d b4 26 00 00 00 00 	lea    0x0(%esi,%eiz,1),%esi
  404309:	8d bc 27 00 00 00 00 	lea    0x0(%edi,%eiz,1),%edi

00404310 <_getpary>:
  404310:	8b 44 24 04          	mov    0x4(%esp),%eax
  404314:	85 c0                	test   %eax,%eax
  404316:	74 04                	je     40431c <_getpary+0xc>
  404318:	8b 40 48             	mov    0x48(%eax),%eax
  40431b:	c3                   	ret    
  40431c:	b8 ff ff ff ff       	mov    $0xffffffff,%eax
  404321:	c3                   	ret    
  404322:	8d b4 26 00 00 00 00 	lea    0x0(%esi,%eiz,1),%esi
  404329:	8d bc 27 00 00 00 00 	lea    0x0(%edi,%eiz,1),%edi

00404330 <_getparx>:
  404330:	8b 44 24 04          	mov    0x4(%esp),%eax
  404334:	85 c0                	test   %eax,%eax
  404336:	74 04                	je     40433c <_getparx+0xc>
  404338:	8b 40 44             	mov    0x44(%eax),%eax
  40433b:	c3                   	ret    
  40433c:	b8 ff ff ff ff       	mov    $0xffffffff,%eax
  404341:	c3                   	ret    
  404342:	8d b4 26 00 00 00 00 	lea    0x0(%esi,%eiz,1),%esi
  404349:	8d bc 27 00 00 00 00 	lea    0x0(%edi,%eiz,1),%edi

00404350 <_getmaxy>:
  404350:	8b 44 24 04          	mov    0x4(%esp),%eax
  404354:	85 c0                	test   %eax,%eax
  404356:	74 04                	je     40435c <_getmaxy+0xc>
  404358:	8b 40 08             	mov    0x8(%eax),%eax
  40435b:	c3                   	ret    
  40435c:	b8 ff ff ff ff       	mov    $0xffffffff,%eax
  404361:	c3                   	ret    
  404362:	8d b4 26 00 00 00 00 	lea    0x0(%esi,%eiz,1),%esi
  404369:	8d bc 27 00 00 00 00 	lea    0x0(%edi,%eiz,1),%edi

00404370 <_getmaxx>:
  404370:	8b 44 24 04          	mov    0x4(%esp),%eax
  404374:	85 c0                	test   %eax,%eax
  404376:	74 04                	je     40437c <_getmaxx+0xc>
  404378:	8b 40 0c             	mov    0xc(%eax),%eax
  40437b:	c3                   	ret    
  40437c:	b8 ff ff ff ff       	mov    $0xffffffff,%eax
  404381:	c3                   	ret    
  404382:	8d b4 26 00 00 00 00 	lea    0x0(%esi,%eiz,1),%esi
  404389:	8d bc 27 00 00 00 00 	lea    0x0(%edi,%eiz,1),%edi

00404390 <_setsyx>:
  404390:	56                   	push   %esi
  404391:	53                   	push   %ebx
  404392:	83 ec 14             	sub    $0x14,%esp
  404395:	8b 15 3c 20 41 00    	mov    0x41203c,%edx
  40439b:	8b 74 24 20          	mov    0x20(%esp),%esi
  40439f:	8b 5c 24 24          	mov    0x24(%esp),%ebx
  4043a3:	85 d2                	test   %edx,%edx
  4043a5:	74 25                	je     4043cc <_setsyx+0x3c>
  4043a7:	83 fe ff             	cmp    $0xffffffff,%esi
  4043aa:	0f 94 c1             	sete   %cl
  4043ad:	83 fb ff             	cmp    $0xffffffff,%ebx
  4043b0:	0f 94 c0             	sete   %al
  4043b3:	09 c8                	or     %ecx,%eax
  4043b5:	84 c0                	test   %al,%al
  4043b7:	88 42 25             	mov    %al,0x25(%edx)
  4043ba:	75 10                	jne    4043cc <_setsyx+0x3c>
  4043bc:	89 5c 24 08          	mov    %ebx,0x8(%esp)
  4043c0:	89 74 24 04          	mov    %esi,0x4(%esp)
  4043c4:	89 14 24             	mov    %edx,(%esp)
  4043c7:	e8 54 10 00 00       	call   405420 <_wmove>
  4043cc:	83 c4 14             	add    $0x14,%esp
  4043cf:	5b                   	pop    %ebx
  4043d0:	5e                   	pop    %esi
  4043d1:	c3                   	ret    
  4043d2:	90                   	nop
  4043d3:	90                   	nop
  4043d4:	90                   	nop
  4043d5:	90                   	nop
  4043d6:	90                   	nop
  4043d7:	90                   	nop
  4043d8:	90                   	nop
  4043d9:	90                   	nop
  4043da:	90                   	nop
  4043db:	90                   	nop
  4043dc:	90                   	nop
  4043dd:	90                   	nop
  4043de:	90                   	nop
  4043df:	90                   	nop

004043e0 <_initscr>:
  4043e0:	57                   	push   %edi
  4043e1:	56                   	push   %esi
  4043e2:	53                   	push   %ebx
  4043e3:	83 ec 10             	sub    $0x10,%esp
  4043e6:	a1 40 20 41 00       	mov    0x412040,%eax
  4043eb:	85 c0                	test   %eax,%eax
  4043ed:	74 09                	je     4043f8 <_initscr+0x18>
  4043ef:	80 38 00             	cmpb   $0x0,(%eax)
  4043f2:	0f 85 aa 03 00 00    	jne    4047a2 <_initscr+0x3c2>
  4043f8:	c7 44 24 04 a0 00 00 	movl   $0xa0,0x4(%esp)
  4043ff:	00 
  404400:	c7 04 24 01 00 00 00 	movl   $0x1,(%esp)
  404407:	e8 78 89 00 00       	call   40cd84 <_calloc>
  40440c:	85 c0                	test   %eax,%eax
  40440e:	a3 40 20 41 00       	mov    %eax,0x412040
  404413:	0f 84 89 03 00 00    	je     4047a2 <_initscr+0x3c2>
  404419:	e8 f2 50 00 00       	call   409510 <_PDC_scr_open>
  40441e:	83 f8 ff             	cmp    $0xffffffff,%eax
  404421:	0f 84 84 03 00 00    	je     4047ab <_initscr+0x3cb>
  404427:	8b 1d 40 20 41 00    	mov    0x412040,%ebx
  40442d:	bf ff ff ff ff       	mov    $0xffffffff,%edi
  404432:	c6 43 01 01          	movb   $0x1,0x1(%ebx)
  404436:	c6 43 05 00          	movb   $0x0,0x5(%ebx)
  40443a:	c6 43 04 00          	movb   $0x0,0x4(%ebx)
  40443e:	c6 43 02 01          	movb   $0x1,0x2(%ebx)
  404442:	c7 43 4c 00 00 00 00 	movl   $0x0,0x4c(%ebx)
  404449:	c6 43 50 00          	movb   $0x0,0x50(%ebx)
  40444d:	c6 43 03 01          	movb   $0x1,0x3(%ebx)
  404451:	c7 43 18 01 00 00 00 	movl   $0x1,0x18(%ebx)
  404458:	c6 43 08 00          	movb   $0x0,0x8(%ebx)
  40445c:	c7 43 28 00 00 00 00 	movl   $0x0,0x28(%ebx)
  404463:	c7 43 38 00 00 00 00 	movl   $0x0,0x38(%ebx)
  40446a:	c7 43 3c 00 00 00 00 	movl   $0x0,0x3c(%ebx)
  404471:	c7 43 40 00 00 00 00 	movl   $0x0,0x40(%ebx)
  404478:	66 89 7b 68          	mov    %di,0x68(%ebx)
  40447c:	c7 43 70 00 00 00 00 	movl   $0x0,0x70(%ebx)
  404483:	c7 43 74 00 00 00 00 	movl   $0x0,0x74(%ebx)
  40448a:	c6 43 78 00          	movb   $0x0,0x78(%ebx)
  40448e:	c6 43 79 00          	movb   $0x0,0x79(%ebx)
  404492:	c7 43 7c ff ff ff ff 	movl   $0xffffffff,0x7c(%ebx)
  404499:	c7 83 80 00 00 00 ff 	movl   $0xffffffff,0x80(%ebx)
  4044a0:	ff ff ff 
  4044a3:	e8 d8 3f 00 00       	call   408480 <_PDC_get_cursor_mode>
  4044a8:	89 43 1c             	mov    %eax,0x1c(%ebx)
  4044ab:	8b 1d 40 20 41 00    	mov    0x412040,%ebx
  4044b1:	e8 fa 3f 00 00       	call   4084b0 <_PDC_get_rows>
  4044b6:	a3 34 20 41 00       	mov    %eax,0x412034
  4044bb:	89 43 20             	mov    %eax,0x20(%ebx)
  4044be:	8b 1d 40 20 41 00    	mov    0x412040,%ebx
  4044c4:	e8 17 40 00 00       	call   4084e0 <_PDC_get_columns>
  4044c9:	83 f8 01             	cmp    $0x1,%eax
  4044cc:	a3 30 20 41 00       	mov    %eax,0x412030
  4044d1:	8b 15 34 20 41 00    	mov    0x412034,%edx
  4044d7:	89 43 24             	mov    %eax,0x24(%ebx)
  4044da:	0f 8e 9b 03 00 00    	jle    40487b <_initscr+0x49b>
  4044e0:	83 fa 01             	cmp    $0x1,%edx
  4044e3:	0f 8e 92 03 00 00    	jle    40487b <_initscr+0x49b>
  4044e9:	c7 44 24 0c 00 00 00 	movl   $0x0,0xc(%esp)
  4044f0:	00 
  4044f1:	c7 44 24 08 00 00 00 	movl   $0x0,0x8(%esp)
  4044f8:	00 
  4044f9:	89 44 24 04          	mov    %eax,0x4(%esp)
  4044fd:	89 14 24             	mov    %edx,(%esp)
  404500:	e8 cb 28 00 00       	call   406dd0 <_newwin>
  404505:	85 c0                	test   %eax,%eax
  404507:	a3 3c 20 41 00       	mov    %eax,0x41203c
  40450c:	0f 84 35 03 00 00    	je     404847 <_initscr+0x467>
  404512:	a1 30 20 41 00       	mov    0x412030,%eax
  404517:	8b 1d 40 20 41 00    	mov    0x412040,%ebx
  40451d:	c7 44 24 0c 00 00 00 	movl   $0x0,0xc(%esp)
  404524:	00 
  404525:	c7 44 24 08 00 00 00 	movl   $0x0,0x8(%esp)
  40452c:	00 
  40452d:	89 44 24 04          	mov    %eax,0x4(%esp)
  404531:	a1 34 20 41 00       	mov    0x412034,%eax
  404536:	89 04 24             	mov    %eax,(%esp)
  404539:	e8 92 28 00 00       	call   406dd0 <_newwin>
  40453e:	89 43 70             	mov    %eax,0x70(%ebx)
  404541:	a1 40 20 41 00       	mov    0x412040,%eax
  404546:	8b 40 70             	mov    0x70(%eax),%eax
  404549:	85 c0                	test   %eax,%eax
  40454b:	0f 84 c2 02 00 00    	je     404813 <_initscr+0x433>
  404551:	c7 44 24 04 ff ff ff 	movl   $0xffffffff,0x4(%esp)
  404558:	ff 
  404559:	89 04 24             	mov    %eax,(%esp)
  40455c:	e8 4f e5 ff ff       	call   402ab0 <_wattrset>
  404561:	a1 40 20 41 00       	mov    0x412040,%eax
  404566:	8b 40 70             	mov    0x70(%eax),%eax
  404569:	89 04 24             	mov    %eax,(%esp)
  40456c:	e8 9f eb ff ff       	call   403110 <_werase>
  404571:	e8 fa 1e 00 00       	call   406470 <_PDC_slk_initialize>
  404576:	8b 15 40 20 41 00    	mov    0x412040,%edx
  40457c:	a1 34 20 41 00       	mov    0x412034,%eax
  404581:	2b 42 30             	sub    0x30(%edx),%eax
  404584:	80 3d 80 20 41 00 00 	cmpb   $0x0,0x412080
  40458b:	a3 34 20 41 00       	mov    %eax,0x412034
  404590:	0f 8e 8a 00 00 00    	jle    404620 <_initscr+0x240>
  404596:	31 db                	xor    %ebx,%ebx
  404598:	eb 5f                	jmp    4045f9 <_initscr+0x219>
  40459a:	8d b6 00 00 00 00    	lea    0x0(%esi),%esi
  4045a0:	8b 42 3c             	mov    0x3c(%edx),%eax
  4045a3:	8b 35 30 20 41 00    	mov    0x412030,%esi
  4045a9:	8d 48 01             	lea    0x1(%eax),%ecx
  4045ac:	89 4a 3c             	mov    %ecx,0x3c(%edx)
  4045af:	c7 44 24 0c 00 00 00 	movl   $0x0,0xc(%esp)
  4045b6:	00 
  4045b7:	89 44 24 08          	mov    %eax,0x8(%esp)
  4045bb:	89 74 24 04          	mov    %esi,0x4(%esp)
  4045bf:	83 c3 01             	add    $0x1,%ebx
  4045c2:	c7 04 24 01 00 00 00 	movl   $0x1,(%esp)
  4045c9:	e8 02 28 00 00       	call   406dd0 <_newwin>
  4045ce:	89 74 24 04          	mov    %esi,0x4(%esp)
  4045d2:	89 04 24             	mov    %eax,(%esp)
  4045d5:	ff d7                	call   *%edi
  4045d7:	0f be 0d 80 20 41 00 	movsbl 0x412080,%ecx
  4045de:	a1 34 20 41 00       	mov    0x412034,%eax
  4045e3:	8b 15 40 20 41 00    	mov    0x412040,%edx
  4045e9:	83 e8 01             	sub    $0x1,%eax
  4045ec:	83 42 38 01          	addl   $0x1,0x38(%edx)
  4045f0:	39 d9                	cmp    %ebx,%ecx
  4045f2:	a3 34 20 41 00       	mov    %eax,0x412034
  4045f7:	7e 27                	jle    404620 <_initscr+0x240>
  4045f9:	8b 34 dd 20 2d 41 00 	mov    0x412d20(,%ebx,8),%esi
  404600:	8b 3c dd 24 2d 41 00 	mov    0x412d24(,%ebx,8),%edi
  404607:	85 f6                	test   %esi,%esi
  404609:	79 95                	jns    4045a0 <_initscr+0x1c0>
  40460b:	8b 35 30 20 41 00    	mov    0x412030,%esi
  404611:	c7 44 24 0c 00 00 00 	movl   $0x0,0xc(%esp)
  404618:	00 
  404619:	83 e8 01             	sub    $0x1,%eax
  40461c:	eb 99                	jmp    4045b7 <_initscr+0x1d7>
  40461e:	66 90                	xchg   %ax,%ax
  404620:	c7 44 24 0c 00 00 00 	movl   $0x0,0xc(%esp)
  404627:	00 
  404628:	8b 52 3c             	mov    0x3c(%edx),%edx
  40462b:	89 04 24             	mov    %eax,(%esp)
  40462e:	c6 05 80 20 41 00 00 	movb   $0x0,0x412080
  404635:	89 54 24 08          	mov    %edx,0x8(%esp)
  404639:	8b 15 30 20 41 00    	mov    0x412030,%edx
  40463f:	89 54 24 04          	mov    %edx,0x4(%esp)
  404643:	e8 88 27 00 00       	call   406dd0 <_newwin>
  404648:	85 c0                	test   %eax,%eax
  40464a:	a3 38 20 41 00       	mov    %eax,0x412038
  40464f:	0f 84 8a 01 00 00    	je     4047df <_initscr+0x3ff>
  404655:	89 04 24             	mov    %eax,(%esp)
  404658:	e8 33 ea ff ff       	call   403090 <_wclrtobot>
  40465d:	8b 1d 40 20 41 00    	mov    0x412040,%ebx
  404663:	a1 3c 20 41 00       	mov    0x41203c,%eax
  404668:	80 7b 44 00          	cmpb   $0x0,0x44(%ebx)
  40466c:	0f 85 fe 00 00 00    	jne    404770 <_initscr+0x390>
  404672:	c6 40 24 01          	movb   $0x1,0x24(%eax)
  404676:	c7 44 24 04 0c 00 00 	movl   $0xc,0x4(%esp)
  40467d:	00 
  40467e:	c7 04 24 00 01 00 00 	movl   $0x100,(%esp)
  404685:	e8 fa 86 00 00       	call   40cd84 <_calloc>
  40468a:	85 c0                	test   %eax,%eax
  40468c:	89 83 9c 00 00 00    	mov    %eax,0x9c(%ebx)
  404692:	0f 84 0a 01 00 00    	je     4047a2 <_initscr+0x3c2>
  404698:	e8 03 ef ff ff       	call   4035a0 <_PDC_init_atrtab>
  40469d:	31 c0                	xor    %eax,%eax
  40469f:	31 d2                	xor    %edx,%edx
  4046a1:	31 c9                	xor    %ecx,%ecx
  4046a3:	66 a3 08 2d 41 00    	mov    %ax,0x412d08
  4046a9:	a1 40 20 41 00       	mov    0x412040,%eax
  4046ae:	66 89 15 0a 2d 41 00 	mov    %dx,0x412d0a
  4046b5:	66 89 0d 0c 2d 41 00 	mov    %cx,0x412d0c
  4046bc:	c7 05 04 2d 41 00 ff 	movl   $0xffffffff,0x412d04
  4046c3:	ff ff ff 
  4046c6:	c7 05 00 2d 41 00 ff 	movl   $0xffffffff,0x412d00
  4046cd:	ff ff ff 
  4046d0:	c7 05 10 2d 41 00 00 	movl   $0x0,0x412d10
  4046d7:	00 00 00 
  4046da:	c6 00 01             	movb   $0x1,(%eax)
  4046dd:	e8 ee 09 00 00       	call   4050d0 <_def_shell_mode>
  4046e2:	e8 29 5a 00 00       	call   40a110 <_PDC_sysname>
  4046e7:	c7 44 24 04 b9 f2 40 	movl   $0x40f2b9,0x4(%esp)
  4046ee:	00 
  4046ef:	89 44 24 08          	mov    %eax,0x8(%esp)
  4046f3:	c7 04 24 80 2c 41 00 	movl   $0x412c80,(%esp)
  4046fa:	e8 1d 86 00 00       	call   40cd1c <_sprintf>
  4046ff:	8b 1d 40 20 41 00    	mov    0x412040,%ebx
  404705:	c7 04 24 00 08 00 00 	movl   $0x800,(%esp)
  40470c:	e8 3b 86 00 00       	call   40cd4c <_malloc>
  404711:	85 c0                	test   %eax,%eax
  404713:	89 83 84 00 00 00    	mov    %eax,0x84(%ebx)
  404719:	0f 84 83 00 00 00    	je     4047a2 <_initscr+0x3c2>
  40471f:	c7 83 88 00 00 00 00 	movl   $0x0,0x88(%ebx)
  404726:	00 00 00 
  404729:	c7 83 8c 00 00 00 01 	movl   $0x1,0x8c(%ebx)
  404730:	00 00 00 
  404733:	c7 04 24 00 04 00 00 	movl   $0x400,(%esp)
  40473a:	e8 0d 86 00 00       	call   40cd4c <_malloc>
  40473f:	85 c0                	test   %eax,%eax
  404741:	89 83 90 00 00 00    	mov    %eax,0x90(%ebx)
  404747:	74 59                	je     4047a2 <_initscr+0x3c2>
  404749:	c7 83 94 00 00 00 00 	movl   $0x0,0x94(%ebx)
  404750:	00 00 00 
  404753:	c7 83 98 00 00 00 00 	movl   $0x100,0x98(%ebx)
  40475a:	01 00 00 
  40475d:	a1 38 20 41 00       	mov    0x412038,%eax
  404762:	83 c4 10             	add    $0x10,%esp
  404765:	5b                   	pop    %ebx
  404766:	5e                   	pop    %esi
  404767:	5f                   	pop    %edi
  404768:	c3                   	ret    
  404769:	8d b4 26 00 00 00 00 	lea    0x0(%esi,%eiz,1),%esi
  404770:	89 04 24             	mov    %eax,(%esp)
  404773:	e8 f8 21 00 00       	call   406970 <_untouchwin>
  404778:	a1 38 20 41 00       	mov    0x412038,%eax
  40477d:	89 04 24             	mov    %eax,(%esp)
  404780:	e8 eb 21 00 00       	call   406970 <_untouchwin>
  404785:	a1 38 20 41 00       	mov    0x412038,%eax
  40478a:	8b 1d 40 20 41 00    	mov    0x412040,%ebx
  404790:	c6 40 24 00          	movb   $0x0,0x24(%eax)
  404794:	a1 3c 20 41 00       	mov    0x41203c,%eax
  404799:	c6 40 24 00          	movb   $0x0,0x24(%eax)
  40479d:	e9 d4 fe ff ff       	jmp    404676 <_initscr+0x296>
  4047a2:	83 c4 10             	add    $0x10,%esp
  4047a5:	31 c0                	xor    %eax,%eax
  4047a7:	5b                   	pop    %ebx
  4047a8:	5e                   	pop    %esi
  4047a9:	5f                   	pop    %edi
  4047aa:	c3                   	ret    
  4047ab:	a1 b0 53 41 00       	mov    0x4153b0,%eax
  4047b0:	c7 44 24 08 1f 00 00 	movl   $0x1f,0x8(%esp)
  4047b7:	00 
  4047b8:	c7 44 24 04 01 00 00 	movl   $0x1,0x4(%esp)
  4047bf:	00 
  4047c0:	c7 04 24 f4 f1 40 00 	movl   $0x40f1f4,(%esp)
  4047c7:	83 c0 40             	add    $0x40,%eax
  4047ca:	89 44 24 0c          	mov    %eax,0xc(%esp)
  4047ce:	e8 89 85 00 00       	call   40cd5c <_fwrite>
  4047d3:	c7 04 24 08 00 00 00 	movl   $0x8,(%esp)
  4047da:	e8 95 85 00 00       	call   40cd74 <_exit>
  4047df:	a1 b0 53 41 00       	mov    0x4153b0,%eax
  4047e4:	c7 44 24 08 24 00 00 	movl   $0x24,0x8(%esp)
  4047eb:	00 
  4047ec:	c7 44 24 04 01 00 00 	movl   $0x1,0x4(%esp)
  4047f3:	00 
  4047f4:	c7 04 24 94 f2 40 00 	movl   $0x40f294,(%esp)
  4047fb:	83 c0 40             	add    $0x40,%eax
  4047fe:	89 44 24 0c          	mov    %eax,0xc(%esp)
  404802:	e8 55 85 00 00       	call   40cd5c <_fwrite>
  404807:	c7 04 24 01 00 00 00 	movl   $0x1,(%esp)
  40480e:	e8 61 85 00 00       	call   40cd74 <_exit>
  404813:	a1 b0 53 41 00       	mov    0x4153b0,%eax
  404818:	c7 44 24 08 29 00 00 	movl   $0x29,0x8(%esp)
  40481f:	00 
  404820:	c7 44 24 04 01 00 00 	movl   $0x1,0x4(%esp)
  404827:	00 
  404828:	c7 04 24 68 f2 40 00 	movl   $0x40f268,(%esp)
  40482f:	83 c0 40             	add    $0x40,%eax
  404832:	89 44 24 0c          	mov    %eax,0xc(%esp)
  404836:	e8 21 85 00 00       	call   40cd5c <_fwrite>
  40483b:	c7 04 24 02 00 00 00 	movl   $0x2,(%esp)
  404842:	e8 2d 85 00 00       	call   40cd74 <_exit>
  404847:	a1 b0 53 41 00       	mov    0x4153b0,%eax
  40484c:	c7 44 24 08 24 00 00 	movl   $0x24,0x8(%esp)
  404853:	00 
  404854:	c7 44 24 04 01 00 00 	movl   $0x1,0x4(%esp)
  40485b:	00 
  40485c:	c7 04 24 40 f2 40 00 	movl   $0x40f240,(%esp)
  404863:	83 c0 40             	add    $0x40,%eax
  404866:	89 44 24 0c          	mov    %eax,0xc(%esp)
  40486a:	e8 ed 84 00 00       	call   40cd5c <_fwrite>
  40486f:	c7 04 24 02 00 00 00 	movl   $0x2,(%esp)
  404876:	e8 f9 84 00 00       	call   40cd74 <_exit>
  40487b:	89 44 24 0c          	mov    %eax,0xc(%esp)
  40487f:	a1 b0 53 41 00       	mov    0x4153b0,%eax
  404884:	89 54 24 08          	mov    %edx,0x8(%esp)
  404888:	c7 44 24 04 14 f2 40 	movl   $0x40f214,0x4(%esp)
  40488f:	00 
  404890:	83 c0 40             	add    $0x40,%eax
  404893:	89 04 24             	mov    %eax,(%esp)
  404896:	e8 d1 84 00 00       	call   40cd6c <_fprintf>
  40489b:	c7 04 24 04 00 00 00 	movl   $0x4,(%esp)
  4048a2:	e8 cd 84 00 00       	call   40cd74 <_exit>
  4048a7:	89 f6                	mov    %esi,%esi
  4048a9:	8d bc 27 00 00 00 00 	lea    0x0(%edi,%eiz,1),%edi

004048b0 <_endwin>:
  4048b0:	83 ec 0c             	sub    $0xc,%esp
  4048b3:	e8 e8 07 00 00       	call   4050a0 <_def_prog_mode>
  4048b8:	e8 73 50 00 00       	call   409930 <_PDC_scr_close>
  4048bd:	a1 40 20 41 00       	mov    0x412040,%eax
  4048c2:	c6 00 00             	movb   $0x0,(%eax)
  4048c5:	31 c0                	xor    %eax,%eax
  4048c7:	83 c4 0c             	add    $0xc,%esp
  4048ca:	c3                   	ret    
  4048cb:	90                   	nop
  4048cc:	8d 74 26 00          	lea    0x0(%esi,%eiz,1),%esi

004048d0 <_isendwin>:
  4048d0:	a1 40 20 41 00       	mov    0x412040,%eax
  4048d5:	85 c0                	test   %eax,%eax
  4048d7:	74 07                	je     4048e0 <_isendwin+0x10>
  4048d9:	80 38 00             	cmpb   $0x0,(%eax)
  4048dc:	0f 94 c0             	sete   %al
  4048df:	c3                   	ret    
  4048e0:	31 c0                	xor    %eax,%eax
  4048e2:	c3                   	ret    
  4048e3:	8d b6 00 00 00 00    	lea    0x0(%esi),%esi
  4048e9:	8d bc 27 00 00 00 00 	lea    0x0(%edi,%eiz,1),%edi

004048f0 <_newterm>:
  4048f0:	83 ec 0c             	sub    $0xc,%esp
  4048f3:	e8 e8 fa ff ff       	call   4043e0 <_initscr>
  4048f8:	85 c0                	test   %eax,%eax
  4048fa:	74 09                	je     404905 <_newterm+0x15>
  4048fc:	a1 40 20 41 00       	mov    0x412040,%eax
  404901:	83 c4 0c             	add    $0xc,%esp
  404904:	c3                   	ret    
  404905:	31 c0                	xor    %eax,%eax
  404907:	eb f8                	jmp    404901 <_newterm+0x11>
  404909:	8d b4 26 00 00 00 00 	lea    0x0(%esi,%eiz,1),%esi

00404910 <_set_term>:
  404910:	8b 44 24 04          	mov    0x4(%esp),%eax
  404914:	3b 05 40 20 41 00    	cmp    0x412040,%eax
  40491a:	ba 00 00 00 00       	mov    $0x0,%edx
  40491f:	0f 45 c2             	cmovne %edx,%eax
  404922:	c3                   	ret    
  404923:	8d b6 00 00 00 00    	lea    0x0(%esi),%esi
  404929:	8d bc 27 00 00 00 00 	lea    0x0(%edi,%eiz,1),%edi

00404930 <_delscreen>:
  404930:	83 ec 1c             	sub    $0x1c,%esp
  404933:	a1 40 20 41 00       	mov    0x412040,%eax
  404938:	3b 44 24 20          	cmp    0x20(%esp),%eax
  40493c:	75 04                	jne    404942 <_delscreen+0x12>
  40493e:	85 c0                	test   %eax,%eax
  404940:	75 0e                	jne    404950 <_delscreen+0x20>
  404942:	83 c4 1c             	add    $0x1c,%esp
  404945:	c3                   	ret    
  404946:	8d 76 00             	lea    0x0(%esi),%esi
  404949:	8d bc 27 00 00 00 00 	lea    0x0(%edi,%eiz,1),%edi
  404950:	8b 80 90 00 00 00    	mov    0x90(%eax),%eax
  404956:	89 04 24             	mov    %eax,(%esp)
  404959:	e8 06 84 00 00       	call   40cd64 <_free>
  40495e:	a1 40 20 41 00       	mov    0x412040,%eax
  404963:	8b 80 84 00 00 00    	mov    0x84(%eax),%eax
  404969:	89 04 24             	mov    %eax,(%esp)
  40496c:	e8 f3 83 00 00       	call   40cd64 <_free>
  404971:	a1 40 20 41 00       	mov    0x412040,%eax
  404976:	8b 80 9c 00 00 00    	mov    0x9c(%eax),%eax
  40497c:	89 04 24             	mov    %eax,(%esp)
  40497f:	e8 e0 83 00 00       	call   40cd64 <_free>
  404984:	e8 47 1e 00 00       	call   4067d0 <_PDC_slk_free>
  404989:	a1 38 20 41 00       	mov    0x412038,%eax
  40498e:	89 04 24             	mov    %eax,(%esp)
  404991:	e8 ca 24 00 00       	call   406e60 <_delwin>
  404996:	a1 3c 20 41 00       	mov    0x41203c,%eax
  40499b:	89 04 24             	mov    %eax,(%esp)
  40499e:	e8 bd 24 00 00       	call   406e60 <_delwin>
  4049a3:	a1 40 20 41 00       	mov    0x412040,%eax
  4049a8:	8b 40 70             	mov    0x70(%eax),%eax
  4049ab:	89 04 24             	mov    %eax,(%esp)
  4049ae:	e8 ad 24 00 00       	call   406e60 <_delwin>
  4049b3:	a1 40 20 41 00       	mov    0x412040,%eax
  4049b8:	c7 05 38 20 41 00 00 	movl   $0x0,0x412038
  4049bf:	00 00 00 
  4049c2:	c7 05 3c 20 41 00 00 	movl   $0x0,0x41203c
  4049c9:	00 00 00 
  4049cc:	c7 40 70 00 00 00 00 	movl   $0x0,0x70(%eax)
  4049d3:	c6 00 00             	movb   $0x0,(%eax)
  4049d6:	e8 e5 48 00 00       	call   4092c0 <_PDC_scr_free>
  4049db:	a1 40 20 41 00       	mov    0x412040,%eax
  4049e0:	89 04 24             	mov    %eax,(%esp)
  4049e3:	e8 7c 83 00 00       	call   40cd64 <_free>
  4049e8:	c7 05 40 20 41 00 00 	movl   $0x0,0x412040
  4049ef:	00 00 00 
  4049f2:	e9 4b ff ff ff       	jmp    404942 <_delscreen+0x12>
  4049f7:	89 f6                	mov    %esi,%esi
  4049f9:	8d bc 27 00 00 00 00 	lea    0x0(%edi,%eiz,1),%edi

00404a00 <_resize_term>:
  404a00:	a1 38 20 41 00       	mov    0x412038,%eax
  404a05:	85 c0                	test   %eax,%eax
  404a07:	0f 84 a3 01 00 00    	je     404bb0 <_resize_term+0x1b0>
  404a0d:	53                   	push   %ebx
  404a0e:	83 ec 18             	sub    $0x18,%esp
  404a11:	8b 44 24 24          	mov    0x24(%esp),%eax
  404a15:	89 44 24 04          	mov    %eax,0x4(%esp)
  404a19:	8b 44 24 20          	mov    0x20(%esp),%eax
  404a1d:	89 04 24             	mov    %eax,(%esp)
  404a20:	e8 fb 48 00 00       	call   409320 <_PDC_resize_screen>
  404a25:	83 f8 ff             	cmp    $0xffffffff,%eax
  404a28:	0f 84 72 01 00 00    	je     404ba0 <_resize_term+0x1a0>
  404a2e:	8b 1d 40 20 41 00    	mov    0x412040,%ebx
  404a34:	c6 43 08 00          	movb   $0x0,0x8(%ebx)
  404a38:	e8 73 3a 00 00       	call   4084b0 <_PDC_get_rows>
  404a3d:	89 43 20             	mov    %eax,0x20(%ebx)
  404a40:	8b 1d 40 20 41 00    	mov    0x412040,%ebx
  404a46:	8b 43 20             	mov    0x20(%ebx),%eax
  404a49:	2b 43 38             	sub    0x38(%ebx),%eax
  404a4c:	2b 43 30             	sub    0x30(%ebx),%eax
  404a4f:	a3 34 20 41 00       	mov    %eax,0x412034
  404a54:	e8 87 3a 00 00       	call   4084e0 <_PDC_get_columns>
  404a59:	a3 30 20 41 00       	mov    %eax,0x412030
  404a5e:	89 43 24             	mov    %eax,0x24(%ebx)
  404a61:	a1 40 20 41 00       	mov    0x412040,%eax
  404a66:	8b 50 20             	mov    0x20(%eax),%edx
  404a69:	39 50 10             	cmp    %edx,0x10(%eax)
  404a6c:	7c 06                	jl     404a74 <_resize_term+0x74>
  404a6e:	8d 4a ff             	lea    -0x1(%edx),%ecx
  404a71:	89 48 10             	mov    %ecx,0x10(%eax)
  404a74:	8b 48 24             	mov    0x24(%eax),%ecx
  404a77:	39 48 14             	cmp    %ecx,0x14(%eax)
  404a7a:	0f 8d 10 01 00 00    	jge    404b90 <_resize_term+0x190>
  404a80:	a1 3c 20 41 00       	mov    0x41203c,%eax
  404a85:	89 4c 24 08          	mov    %ecx,0x8(%esp)
  404a89:	89 54 24 04          	mov    %edx,0x4(%esp)
  404a8d:	89 04 24             	mov    %eax,(%esp)
  404a90:	e8 fb 2a 00 00       	call   407590 <_wresize>
  404a95:	83 f8 ff             	cmp    $0xffffffff,%eax
  404a98:	0f 84 02 01 00 00    	je     404ba0 <_resize_term+0x1a0>
  404a9e:	a1 30 20 41 00       	mov    0x412030,%eax
  404aa3:	89 44 24 08          	mov    %eax,0x8(%esp)
  404aa7:	a1 34 20 41 00       	mov    0x412034,%eax
  404aac:	89 44 24 04          	mov    %eax,0x4(%esp)
  404ab0:	a1 38 20 41 00       	mov    0x412038,%eax
  404ab5:	89 04 24             	mov    %eax,(%esp)
  404ab8:	e8 d3 2a 00 00       	call   407590 <_wresize>
  404abd:	83 f8 ff             	cmp    $0xffffffff,%eax
  404ac0:	0f 84 da 00 00 00    	je     404ba0 <_resize_term+0x1a0>
  404ac6:	a1 40 20 41 00       	mov    0x412040,%eax
  404acb:	8b 50 24             	mov    0x24(%eax),%edx
  404ace:	89 54 24 08          	mov    %edx,0x8(%esp)
  404ad2:	8b 50 20             	mov    0x20(%eax),%edx
  404ad5:	89 54 24 04          	mov    %edx,0x4(%esp)
  404ad9:	8b 40 70             	mov    0x70(%eax),%eax
  404adc:	89 04 24             	mov    %eax,(%esp)
  404adf:	e8 ac 2a 00 00       	call   407590 <_wresize>
  404ae4:	83 f8 ff             	cmp    $0xffffffff,%eax
  404ae7:	0f 84 b3 00 00 00    	je     404ba0 <_resize_term+0x1a0>
  404aed:	a1 40 20 41 00       	mov    0x412040,%eax
  404af2:	8b 40 70             	mov    0x70(%eax),%eax
  404af5:	89 04 24             	mov    %eax,(%esp)
  404af8:	e8 13 e6 ff ff       	call   403110 <_werase>
  404afd:	a1 3c 20 41 00       	mov    0x41203c,%eax
  404b02:	8b 15 40 20 41 00    	mov    0x412040,%edx
  404b08:	c6 40 24 01          	movb   $0x1,0x24(%eax)
  404b0c:	8b 42 34             	mov    0x34(%edx),%eax
  404b0f:	85 c0                	test   %eax,%eax
  404b11:	74 58                	je     404b6b <_resize_term+0x16b>
  404b13:	8b 0d 30 20 41 00    	mov    0x412030,%ecx
  404b19:	89 4c 24 08          	mov    %ecx,0x8(%esp)
  404b1d:	8b 52 30             	mov    0x30(%edx),%edx
  404b20:	89 04 24             	mov    %eax,(%esp)
  404b23:	89 54 24 04          	mov    %edx,0x4(%esp)
  404b27:	e8 64 2a 00 00       	call   407590 <_wresize>
  404b2c:	83 f8 ff             	cmp    $0xffffffff,%eax
  404b2f:	74 6f                	je     404ba0 <_resize_term+0x1a0>
  404b31:	a1 40 20 41 00       	mov    0x412040,%eax
  404b36:	c7 44 24 08 00 00 00 	movl   $0x0,0x8(%esp)
  404b3d:	00 
  404b3e:	c7 44 24 04 00 00 00 	movl   $0x0,0x4(%esp)
  404b45:	00 
  404b46:	8b 40 34             	mov    0x34(%eax),%eax
  404b49:	89 04 24             	mov    %eax,(%esp)
  404b4c:	e8 cf 08 00 00       	call   405420 <_wmove>
  404b51:	a1 40 20 41 00       	mov    0x412040,%eax
  404b56:	8b 40 34             	mov    0x34(%eax),%eax
  404b59:	89 04 24             	mov    %eax,(%esp)
  404b5c:	e8 2f e5 ff ff       	call   403090 <_wclrtobot>
  404b61:	e8 0a 19 00 00       	call   406470 <_PDC_slk_initialize>
  404b66:	e8 85 16 00 00       	call   4061f0 <_slk_noutrefresh>
  404b6b:	a1 38 20 41 00       	mov    0x412038,%eax
  404b70:	89 04 24             	mov    %eax,(%esp)
  404b73:	e8 48 1d 00 00       	call   4068c0 <_touchwin>
  404b78:	a1 38 20 41 00       	mov    0x412038,%eax
  404b7d:	89 04 24             	mov    %eax,(%esp)
  404b80:	e8 7b 0c 00 00       	call   405800 <_wnoutrefresh>
  404b85:	83 c4 18             	add    $0x18,%esp
  404b88:	31 c0                	xor    %eax,%eax
  404b8a:	5b                   	pop    %ebx
  404b8b:	c3                   	ret    
  404b8c:	8d 74 26 00          	lea    0x0(%esi,%eiz,1),%esi
  404b90:	8d 59 ff             	lea    -0x1(%ecx),%ebx
  404b93:	89 58 14             	mov    %ebx,0x14(%eax)
  404b96:	e9 e5 fe ff ff       	jmp    404a80 <_resize_term+0x80>
  404b9b:	90                   	nop
  404b9c:	8d 74 26 00          	lea    0x0(%esi,%eiz,1),%esi
  404ba0:	83 c4 18             	add    $0x18,%esp
  404ba3:	b8 ff ff ff ff       	mov    $0xffffffff,%eax
  404ba8:	5b                   	pop    %ebx
  404ba9:	c3                   	ret    
  404baa:	8d b6 00 00 00 00    	lea    0x0(%esi),%esi
  404bb0:	b8 ff ff ff ff       	mov    $0xffffffff,%eax
  404bb5:	c3                   	ret    
  404bb6:	8d 76 00             	lea    0x0(%esi),%esi
  404bb9:	8d bc 27 00 00 00 00 	lea    0x0(%edi,%eiz,1),%edi

00404bc0 <_is_termresized>:
  404bc0:	a1 40 20 41 00       	mov    0x412040,%eax
  404bc5:	0f b6 40 08          	movzbl 0x8(%eax),%eax
  404bc9:	c3                   	ret    
  404bca:	8d b6 00 00 00 00    	lea    0x0(%esi),%esi

00404bd0 <_curses_version>:
  404bd0:	a1 48 e1 40 00       	mov    0x40e148,%eax
  404bd5:	c3                   	ret    
  404bd6:	8d 76 00             	lea    0x0(%esi),%esi
  404bd9:	8d bc 27 00 00 00 00 	lea    0x0(%edi,%eiz,1),%edi

00404be0 <_PDC_get_version>:
  404be0:	8b 44 24 04          	mov    0x4(%esp),%eax
  404be4:	85 c0                	test   %eax,%eax
  404be6:	74 1e                	je     404c06 <_PDC_get_version+0x26>
  404be8:	31 d2                	xor    %edx,%edx
  404bea:	b9 43 0f 00 00       	mov    $0xf43,%ecx
  404bef:	c6 40 04 03          	movb   $0x3,0x4(%eax)
  404bf3:	66 89 10             	mov    %dx,(%eax)
  404bf6:	66 89 48 02          	mov    %cx,0x2(%eax)
  404bfa:	c6 40 05 09          	movb   $0x9,0x5(%eax)
  404bfe:	c6 40 06 04          	movb   $0x4,0x6(%eax)
  404c02:	c6 40 07 01          	movb   $0x1,0x7(%eax)
  404c06:	f3 c3                	repz ret 
  404c08:	90                   	nop
  404c09:	8d b4 26 00 00 00 00 	lea    0x0(%esi,%eiz,1),%esi

00404c10 <_set_tabsize>:
  404c10:	8b 44 24 04          	mov    0x4(%esp),%eax
  404c14:	85 c0                	test   %eax,%eax
  404c16:	7e 08                	jle    404c20 <_set_tabsize+0x10>
  404c18:	a3 44 e1 40 00       	mov    %eax,0x40e144
  404c1d:	31 c0                	xor    %eax,%eax
  404c1f:	c3                   	ret    
  404c20:	b8 ff ff ff ff       	mov    $0xffffffff,%eax
  404c25:	c3                   	ret    
  404c26:	90                   	nop
  404c27:	90                   	nop
  404c28:	90                   	nop
  404c29:	90                   	nop
  404c2a:	90                   	nop
  404c2b:	90                   	nop
  404c2c:	90                   	nop
  404c2d:	90                   	nop
  404c2e:	90                   	nop
  404c2f:	90                   	nop

00404c30 <_cbreak>:
  404c30:	a1 40 20 41 00       	mov    0x412040,%eax
  404c35:	85 c0                	test   %eax,%eax
  404c37:	74 07                	je     404c40 <_cbreak+0x10>
  404c39:	c6 40 02 01          	movb   $0x1,0x2(%eax)
  404c3d:	31 c0                	xor    %eax,%eax
  404c3f:	c3                   	ret    
  404c40:	b8 ff ff ff ff       	mov    $0xffffffff,%eax
  404c45:	c3                   	ret    
  404c46:	8d 76 00             	lea    0x0(%esi),%esi
  404c49:	8d bc 27 00 00 00 00 	lea    0x0(%edi,%eiz,1),%edi

00404c50 <_nocbreak>:
  404c50:	a1 40 20 41 00       	mov    0x412040,%eax
  404c55:	85 c0                	test   %eax,%eax
  404c57:	74 0e                	je     404c67 <_nocbreak+0x17>
  404c59:	c6 40 02 00          	movb   $0x0,0x2(%eax)
  404c5d:	c7 40 40 00 00 00 00 	movl   $0x0,0x40(%eax)
  404c64:	31 c0                	xor    %eax,%eax
  404c66:	c3                   	ret    
  404c67:	b8 ff ff ff ff       	mov    $0xffffffff,%eax
  404c6c:	c3                   	ret    
  404c6d:	8d 76 00             	lea    0x0(%esi),%esi

00404c70 <_echo>:
  404c70:	a1 40 20 41 00       	mov    0x412040,%eax
  404c75:	85 c0                	test   %eax,%eax
  404c77:	74 07                	je     404c80 <_echo+0x10>
  404c79:	c6 40 03 01          	movb   $0x1,0x3(%eax)
  404c7d:	31 c0                	xor    %eax,%eax
  404c7f:	c3                   	ret    
  404c80:	b8 ff ff ff ff       	mov    $0xffffffff,%eax
  404c85:	c3                   	ret    
  404c86:	8d 76 00             	lea    0x0(%esi),%esi
  404c89:	8d bc 27 00 00 00 00 	lea    0x0(%edi,%eiz,1),%edi

00404c90 <_noecho>:
  404c90:	a1 40 20 41 00       	mov    0x412040,%eax
  404c95:	85 c0                	test   %eax,%eax
  404c97:	74 07                	je     404ca0 <_noecho+0x10>
  404c99:	c6 40 03 00          	movb   $0x0,0x3(%eax)
  404c9d:	31 c0                	xor    %eax,%eax
  404c9f:	c3                   	ret    
  404ca0:	b8 ff ff ff ff       	mov    $0xffffffff,%eax
  404ca5:	c3                   	ret    
  404ca6:	8d 76 00             	lea    0x0(%esi),%esi
  404ca9:	8d bc 27 00 00 00 00 	lea    0x0(%edi,%eiz,1),%edi

00404cb0 <_halfdelay>:
  404cb0:	a1 40 20 41 00       	mov    0x412040,%eax
  404cb5:	8b 54 24 04          	mov    0x4(%esp),%edx
  404cb9:	85 c0                	test   %eax,%eax
  404cbb:	74 13                	je     404cd0 <_halfdelay+0x20>
  404cbd:	8d 4a ff             	lea    -0x1(%edx),%ecx
  404cc0:	81 f9 fe 00 00 00    	cmp    $0xfe,%ecx
  404cc6:	77 08                	ja     404cd0 <_halfdelay+0x20>
  404cc8:	89 50 40             	mov    %edx,0x40(%eax)
  404ccb:	31 c0                	xor    %eax,%eax
  404ccd:	c3                   	ret    
  404cce:	66 90                	xchg   %ax,%ax
  404cd0:	b8 ff ff ff ff       	mov    $0xffffffff,%eax
  404cd5:	c3                   	ret    
  404cd6:	8d 76 00             	lea    0x0(%esi),%esi
  404cd9:	8d bc 27 00 00 00 00 	lea    0x0(%edi,%eiz,1),%edi

00404ce0 <_intrflush>:
  404ce0:	31 c0                	xor    %eax,%eax
  404ce2:	c3                   	ret    
  404ce3:	8d b6 00 00 00 00    	lea    0x0(%esi),%esi
  404ce9:	8d bc 27 00 00 00 00 	lea    0x0(%edi,%eiz,1),%edi

00404cf0 <_keypad>:
  404cf0:	8b 44 24 04          	mov    0x4(%esp),%eax
  404cf4:	8b 54 24 08          	mov    0x8(%esp),%edx
  404cf8:	85 c0                	test   %eax,%eax
  404cfa:	74 06                	je     404d02 <_keypad+0x12>
  404cfc:	88 50 2a             	mov    %dl,0x2a(%eax)
  404cff:	31 c0                	xor    %eax,%eax
  404d01:	c3                   	ret    
  404d02:	b8 ff ff ff ff       	mov    $0xffffffff,%eax
  404d07:	c3                   	ret    
  404d08:	90                   	nop
  404d09:	8d b4 26 00 00 00 00 	lea    0x0(%esi,%eiz,1),%esi

00404d10 <_meta>:
  404d10:	a1 40 20 41 00       	mov    0x412040,%eax
  404d15:	8b 54 24 08          	mov    0x8(%esp),%edx
  404d19:	85 c0                	test   %eax,%eax
  404d1b:	74 06                	je     404d23 <_meta+0x13>
  404d1d:	88 50 04             	mov    %dl,0x4(%eax)
  404d20:	31 c0                	xor    %eax,%eax
  404d22:	c3                   	ret    
  404d23:	b8 ff ff ff ff       	mov    $0xffffffff,%eax
  404d28:	c3                   	ret    
  404d29:	8d b4 26 00 00 00 00 	lea    0x0(%esi,%eiz,1),%esi

00404d30 <_nl>:
  404d30:	a1 40 20 41 00       	mov    0x412040,%eax
  404d35:	85 c0                	test   %eax,%eax
  404d37:	74 07                	je     404d40 <_nl+0x10>
  404d39:	c6 40 01 01          	movb   $0x1,0x1(%eax)
  404d3d:	31 c0                	xor    %eax,%eax
  404d3f:	c3                   	ret    
  404d40:	b8 ff ff ff ff       	mov    $0xffffffff,%eax
  404d45:	c3                   	ret    
  404d46:	8d 76 00             	lea    0x0(%esi),%esi
  404d49:	8d bc 27 00 00 00 00 	lea    0x0(%edi,%eiz,1),%edi

00404d50 <_nonl>:
  404d50:	a1 40 20 41 00       	mov    0x412040,%eax
  404d55:	85 c0                	test   %eax,%eax
  404d57:	74 07                	je     404d60 <_nonl+0x10>
  404d59:	c6 40 01 00          	movb   $0x0,0x1(%eax)
  404d5d:	31 c0                	xor    %eax,%eax
  404d5f:	c3                   	ret    
  404d60:	b8 ff ff ff ff       	mov    $0xffffffff,%eax
  404d65:	c3                   	ret    
  404d66:	8d 76 00             	lea    0x0(%esi),%esi
  404d69:	8d bc 27 00 00 00 00 	lea    0x0(%edi,%eiz,1),%edi

00404d70 <_nodelay>:
  404d70:	8b 44 24 04          	mov    0x4(%esp),%eax
  404d74:	8b 54 24 08          	mov    0x8(%esp),%edx
  404d78:	85 c0                	test   %eax,%eax
  404d7a:	74 06                	je     404d82 <_nodelay+0x12>
  404d7c:	88 50 27             	mov    %dl,0x27(%eax)
  404d7f:	31 c0                	xor    %eax,%eax
  404d81:	c3                   	ret    
  404d82:	b8 ff ff ff ff       	mov    $0xffffffff,%eax
  404d87:	c3                   	ret    
  404d88:	90                   	nop
  404d89:	8d b4 26 00 00 00 00 	lea    0x0(%esi,%eiz,1),%esi

00404d90 <_notimeout>:
  404d90:	31 c0                	xor    %eax,%eax
  404d92:	c3                   	ret    
  404d93:	8d b6 00 00 00 00    	lea    0x0(%esi),%esi
  404d99:	8d bc 27 00 00 00 00 	lea    0x0(%edi,%eiz,1),%edi

00404da0 <_raw>:
  404da0:	a1 40 20 41 00       	mov    0x412040,%eax
  404da5:	85 c0                	test   %eax,%eax
  404da7:	74 27                	je     404dd0 <_raw+0x30>
  404da9:	83 ec 1c             	sub    $0x1c,%esp
  404dac:	c7 04 24 01 00 00 00 	movl   $0x1,(%esp)
  404db3:	e8 58 37 00 00       	call   408510 <_PDC_set_keyboard_binary>
  404db8:	a1 40 20 41 00       	mov    0x412040,%eax
  404dbd:	c6 40 04 01          	movb   $0x1,0x4(%eax)
  404dc1:	31 c0                	xor    %eax,%eax
  404dc3:	83 c4 1c             	add    $0x1c,%esp
  404dc6:	c3                   	ret    
  404dc7:	89 f6                	mov    %esi,%esi
  404dc9:	8d bc 27 00 00 00 00 	lea    0x0(%edi,%eiz,1),%edi
  404dd0:	b8 ff ff ff ff       	mov    $0xffffffff,%eax
  404dd5:	c3                   	ret    
  404dd6:	8d 76 00             	lea    0x0(%esi),%esi
  404dd9:	8d bc 27 00 00 00 00 	lea    0x0(%edi,%eiz,1),%edi

00404de0 <_noraw>:
  404de0:	a1 40 20 41 00       	mov    0x412040,%eax
  404de5:	85 c0                	test   %eax,%eax
  404de7:	74 27                	je     404e10 <_noraw+0x30>
  404de9:	83 ec 1c             	sub    $0x1c,%esp
  404dec:	c7 04 24 00 00 00 00 	movl   $0x0,(%esp)
  404df3:	e8 18 37 00 00       	call   408510 <_PDC_set_keyboard_binary>
  404df8:	a1 40 20 41 00       	mov    0x412040,%eax
  404dfd:	c6 40 04 00          	movb   $0x0,0x4(%eax)
  404e01:	31 c0                	xor    %eax,%eax
  404e03:	83 c4 1c             	add    $0x1c,%esp
  404e06:	c3                   	ret    
  404e07:	89 f6                	mov    %esi,%esi
  404e09:	8d bc 27 00 00 00 00 	lea    0x0(%edi,%eiz,1),%edi
  404e10:	b8 ff ff ff ff       	mov    $0xffffffff,%eax
  404e15:	c3                   	ret    
  404e16:	8d 76 00             	lea    0x0(%esi),%esi
  404e19:	8d bc 27 00 00 00 00 	lea    0x0(%edi,%eiz,1),%edi

00404e20 <_noqiflush>:
  404e20:	f3 c3                	repz ret 
  404e22:	8d b4 26 00 00 00 00 	lea    0x0(%esi,%eiz,1),%esi
  404e29:	8d bc 27 00 00 00 00 	lea    0x0(%edi,%eiz,1),%edi

00404e30 <_qiflush>:
  404e30:	f3 c3                	repz ret 
  404e32:	8d b4 26 00 00 00 00 	lea    0x0(%esi,%eiz,1),%esi
  404e39:	8d bc 27 00 00 00 00 	lea    0x0(%edi,%eiz,1),%edi

00404e40 <_timeout>:
  404e40:	a1 38 20 41 00       	mov    0x412038,%eax
  404e45:	8b 54 24 04          	mov    0x4(%esp),%edx
  404e49:	85 c0                	test   %eax,%eax
  404e4b:	74 09                	je     404e56 <_timeout+0x16>
  404e4d:	85 d2                	test   %edx,%edx
  404e4f:	78 1f                	js     404e70 <_timeout+0x30>
  404e51:	74 0d                	je     404e60 <_timeout+0x20>
  404e53:	89 50 40             	mov    %edx,0x40(%eax)
  404e56:	f3 c3                	repz ret 
  404e58:	90                   	nop
  404e59:	8d b4 26 00 00 00 00 	lea    0x0(%esi,%eiz,1),%esi
  404e60:	c6 40 27 01          	movb   $0x1,0x27(%eax)
  404e64:	c7 40 40 00 00 00 00 	movl   $0x0,0x40(%eax)
  404e6b:	c3                   	ret    
  404e6c:	8d 74 26 00          	lea    0x0(%esi,%eiz,1),%esi
  404e70:	c6 40 27 00          	movb   $0x0,0x27(%eax)
  404e74:	c7 40 40 00 00 00 00 	movl   $0x0,0x40(%eax)
  404e7b:	c3                   	ret    
  404e7c:	8d 74 26 00          	lea    0x0(%esi,%eiz,1),%esi

00404e80 <_wtimeout>:
  404e80:	8b 44 24 04          	mov    0x4(%esp),%eax
  404e84:	8b 54 24 08          	mov    0x8(%esp),%edx
  404e88:	85 c0                	test   %eax,%eax
  404e8a:	74 09                	je     404e95 <_wtimeout+0x15>
  404e8c:	85 d2                	test   %edx,%edx
  404e8e:	78 20                	js     404eb0 <_wtimeout+0x30>
  404e90:	74 0e                	je     404ea0 <_wtimeout+0x20>
  404e92:	89 50 40             	mov    %edx,0x40(%eax)
  404e95:	f3 c3                	repz ret 
  404e97:	89 f6                	mov    %esi,%esi
  404e99:	8d bc 27 00 00 00 00 	lea    0x0(%edi,%eiz,1),%edi
  404ea0:	c6 40 27 01          	movb   $0x1,0x27(%eax)
  404ea4:	c7 40 40 00 00 00 00 	movl   $0x0,0x40(%eax)
  404eab:	c3                   	ret    
  404eac:	8d 74 26 00          	lea    0x0(%esi,%eiz,1),%esi
  404eb0:	c6 40 27 00          	movb   $0x0,0x27(%eax)
  404eb4:	c7 40 40 00 00 00 00 	movl   $0x0,0x40(%eax)
  404ebb:	c3                   	ret    
  404ebc:	8d 74 26 00          	lea    0x0(%esi,%eiz,1),%esi

00404ec0 <_wgetdelay>:
  404ec0:	8b 44 24 04          	mov    0x4(%esp),%eax
  404ec4:	85 c0                	test   %eax,%eax
  404ec6:	74 08                	je     404ed0 <_wgetdelay+0x10>
  404ec8:	8b 40 40             	mov    0x40(%eax),%eax
  404ecb:	c3                   	ret    
  404ecc:	8d 74 26 00          	lea    0x0(%esi,%eiz,1),%esi
  404ed0:	31 c0                	xor    %eax,%eax
  404ed2:	c3                   	ret    
  404ed3:	8d b6 00 00 00 00    	lea    0x0(%esi),%esi
  404ed9:	8d bc 27 00 00 00 00 	lea    0x0(%edi,%eiz,1),%edi

00404ee0 <_typeahead>:
  404ee0:	31 c0                	xor    %eax,%eax
  404ee2:	c3                   	ret    
  404ee3:	8d b6 00 00 00 00    	lea    0x0(%esi),%esi
  404ee9:	8d bc 27 00 00 00 00 	lea    0x0(%edi,%eiz,1),%edi

00404ef0 <_crmode>:
  404ef0:	a1 40 20 41 00       	mov    0x412040,%eax
  404ef5:	85 c0                	test   %eax,%eax
  404ef7:	74 07                	je     404f00 <_crmode+0x10>
  404ef9:	c6 40 02 01          	movb   $0x1,0x2(%eax)
  404efd:	31 c0                	xor    %eax,%eax
  404eff:	c3                   	ret    
  404f00:	b8 ff ff ff ff       	mov    $0xffffffff,%eax
  404f05:	c3                   	ret    
  404f06:	8d 76 00             	lea    0x0(%esi),%esi
  404f09:	8d bc 27 00 00 00 00 	lea    0x0(%edi,%eiz,1),%edi

00404f10 <_nocrmode>:
  404f10:	a1 40 20 41 00       	mov    0x412040,%eax
  404f15:	85 c0                	test   %eax,%eax
  404f17:	74 0e                	je     404f27 <_nocrmode+0x17>
  404f19:	c6 40 02 00          	movb   $0x0,0x2(%eax)
  404f1d:	c7 40 40 00 00 00 00 	movl   $0x0,0x40(%eax)
  404f24:	31 c0                	xor    %eax,%eax
  404f26:	c3                   	ret    
  404f27:	b8 ff ff ff ff       	mov    $0xffffffff,%eax
  404f2c:	c3                   	ret    
  404f2d:	8d 76 00             	lea    0x0(%esi),%esi

00404f30 <_is_keypad>:
  404f30:	8b 44 24 04          	mov    0x4(%esp),%eax
  404f34:	85 c0                	test   %eax,%eax
  404f36:	74 08                	je     404f40 <_is_keypad+0x10>
  404f38:	0f b6 40 2a          	movzbl 0x2a(%eax),%eax
  404f3c:	c3                   	ret    
  404f3d:	8d 76 00             	lea    0x0(%esi),%esi
  404f40:	31 c0                	xor    %eax,%eax
  404f42:	c3                   	ret    
  404f43:	8d b6 00 00 00 00    	lea    0x0(%esi),%esi
  404f49:	8d bc 27 00 00 00 00 	lea    0x0(%edi,%eiz,1),%edi

00404f50 <_is_nodelay>:
  404f50:	8b 44 24 04          	mov    0x4(%esp),%eax
  404f54:	85 c0                	test   %eax,%eax
  404f56:	74 08                	je     404f60 <_is_nodelay+0x10>
  404f58:	0f b6 40 27          	movzbl 0x27(%eax),%eax
  404f5c:	c3                   	ret    
  404f5d:	8d 76 00             	lea    0x0(%esi),%esi
  404f60:	31 c0                	xor    %eax,%eax
  404f62:	c3                   	ret    
  404f63:	8d b6 00 00 00 00    	lea    0x0(%esi),%esi
  404f69:	8d bc 27 00 00 00 00 	lea    0x0(%edi,%eiz,1),%edi

00404f70 <_is_notimeout>:
  404f70:	31 c0                	xor    %eax,%eax
  404f72:	c3                   	ret    
  404f73:	90                   	nop
  404f74:	90                   	nop
  404f75:	90                   	nop
  404f76:	90                   	nop
  404f77:	90                   	nop
  404f78:	90                   	nop
  404f79:	90                   	nop
  404f7a:	90                   	nop
  404f7b:	90                   	nop
  404f7c:	90                   	nop
  404f7d:	90                   	nop
  404f7e:	90                   	nop
  404f7f:	90                   	nop

00404f80 <__save_mode>:
  404f80:	69 d0 a4 00 00 00    	imul   $0xa4,%eax,%edx
  404f86:	57                   	push   %edi
  404f87:	56                   	push   %esi
